
.\main32.elf:     file format elf32-littlemips


Disassembly of section .bootrom:

bfc00000 <_bootrom_reset>:
bfc00000:	3c1a9d00 	lui	k0,0x9d00
bfc00004:	275a1810 	addiu	k0,k0,6160
bfc00008:	03400008 	jr	k0
bfc0000c:	00000000 	nop

Disassembly of section .reset:

9d001000 <_reset>:
9d001000:	3c1a9d00 	lui	k0,0x9d00
9d001004:	275a1810 	addiu	k0,k0,6160
9d001008:	03400008 	jr	k0
9d00100c:	00000000 	nop

Disassembly of section .startup:

9d001810 <_startup>:
9d001810:	401a6000 	mfc0	k0,c0_status
9d001814:	7f5a04c0 	ext	k0,k0,0x13,0x1
9d001818:	13400002 	beqz	k0,9d001824 <_no_nmi>
9d00181c:	00000000 	nop
9d001820:	00000000 	nop

9d001824 <_no_nmi>:
9d001824:	3c1da001 	lui	sp,0xa001
9d001828:	27bd8000 	addiu	sp,sp,-32768
9d00182c:	3c1ca000 	lui	gp,0xa000
9d001830:	279c7ff0 	addiu	gp,gp,32752
9d001834:	40096002 	mfc0	t1,c0_srsctl
9d001838:	01205820 	add	t3,t1,zero
9d00183c:	7d2a1e80 	ext	t2,t1,0x1a,0x4
9d001840:	7d494984 	ins	t1,t2,0x6,0x4
9d001844:	40896002 	mtc0	t1,c0_srsctl
9d001848:	41dce000 	wrpgpr	gp,gp
9d00184c:	408b6002 	mtc0	t3,c0_srsctl
9d001850:	00000000 	nop
9d001854:	3c08a000 	lui	t0,0xa000
9d001858:	25080000 	addiu	t0,t0,0
9d00185c:	3c09a000 	lui	t1,0xa000
9d001860:	25291f1c 	addiu	t1,t1,7964
9d001864:	10000003 	b	9d001874 <_bss_check>
9d001868:	00000000 	nop

9d00186c <_bss_init>:
9d00186c:	ad000000 	sw	zero,0(t0)
9d001870:	25080004 	addiu	t0,t0,4

9d001874 <_bss_check>:
9d001874:	0109082b 	sltu	at,t0,t1
9d001878:	1420fffc 	bnez	at,9d00186c <_bss_init>
9d00187c:	00000000 	nop
9d001880:	3c089d00 	lui	t0,0x9d00
9d001884:	25082e18 	addiu	t0,t0,11800
9d001888:	3c09a000 	lui	t1,0xa000
9d00188c:	25290000 	addiu	t1,t1,0
9d001890:	3c0aa000 	lui	t2,0xa000
9d001894:	254a0000 	addiu	t2,t2,0
9d001898:	10000005 	b	9d0018b0 <_init_check>
9d00189c:	00000000 	nop

9d0018a0 <_init_data>:
9d0018a0:	8d0b0000 	lw	t3,0(t0)
9d0018a4:	ad2b0000 	sw	t3,0(t1)
9d0018a8:	25080004 	addiu	t0,t0,4
9d0018ac:	25290004 	addiu	t1,t1,4

9d0018b0 <_init_check>:
9d0018b0:	012a082b 	sltu	at,t1,t2
9d0018b4:	1420fffa 	bnez	at,9d0018a0 <_init_data>
9d0018b8:	00000000 	nop
9d0018bc:	40804800 	mtc0	zero,c0_count
9d0018c0:	240affff 	li	t2,-1
9d0018c4:	408a5800 	mtc0	t2,c0_compare
9d0018c8:	3c099d00 	lui	t1,0x9d00
9d0018cc:	25291000 	addiu	t1,t1,4096
9d0018d0:	40897801 	mtc0	t1,c0_ebase
9d0018d4:	3c090000 	lui	t1,0x0
9d0018d8:	25290001 	addiu	t1,t1,1
9d0018dc:	240a0000 	li	t2,0
9d0018e0:	7d2a4944 	ins	t2,t1,0x5,0x5
9d0018e4:	408a6001 	mtc0	t2,c0_intctl
9d0018e8:	3c090080 	lui	t1,0x80
9d0018ec:	40896800 	mtc0	t1,c0_cause
9d0018f0:	40088000 	mfc0	t0,c0_config
9d0018f4:	7d090580 	ext	t1,t0,0x16,0x1
9d0018f8:	00094c40 	sll	t1,t1,0x11
9d0018fc:	40086000 	mfc0	t0,c0_status
9d001900:	3c010058 	lui	at,0x58
9d001904:	01014024 	and	t0,t0,at
9d001908:	01284025 	or	t0,t1,t0
9d00190c:	40886000 	mtc0	t0,c0_status
9d001910:	00000000 	nop
9d001914:	40086000 	mfc0	t0,c0_status
9d001918:	3c01ffbf 	lui	at,0xffbf
9d00191c:	3421ffff 	ori	at,at,0xffff
9d001920:	01014024 	and	t0,t0,at
9d001924:	40886000 	mtc0	t0,c0_status
9d001928:	30840000 	andi	a0,a0,0x0
9d00192c:	30a50000 	andi	a1,a1,0x0
9d001930:	3c089d00 	lui	t0,0x9d00
9d001934:	25081a90 	addiu	t0,t0,6800
9d001938:	01000008 	jr	t0
9d00193c:	00000000 	nop

Disassembly of section .vector_4:

9d001280 <.vector_4>:
9d001280:	0b4007f5 	j	9d001fd4 <_Tmr1Interrupt>
9d001284:	00000000 	nop

Disassembly of section .vector_8:

9d001300 <.vector_8>:
9d001300:	0b400854 	j	9d002150 <_Tmr2Interrupt>
9d001304:	00000000 	nop

Disassembly of section .vector_16:

9d001400 <.vector_16>:
9d001400:	0b4006ab 	j	9d001aac <_ADC1Interrupt>
9d001404:	00000000 	nop

Disassembly of section .vector_23:

9d0014e0 <.vector_23>:
9d0014e0:	0b4006ab 	j	9d001aac <_ADC1Interrupt>
9d0014e4:	00000000 	nop

Disassembly of section .vector_30:

9d0015c0 <.vector_30>:
9d0015c0:	0b4006ab 	j	9d001aac <_ADC1Interrupt>
9d0015c4:	00000000 	nop

Disassembly of section .vector_31:

9d0015e0 <.vector_31>:
9d0015e0:	0b4006ab 	j	9d001aac <_ADC1Interrupt>
9d0015e4:	00000000 	nop

Disassembly of section .vector_32:

9d001600 <.vector_32>:
9d001600:	0b4008f8 	j	9d0023e0 <_UART1Interrupt>
9d001604:	00000000 	nop

Disassembly of section .vector_36:

9d001680 <.vector_36>:
9d001680:	0b4006ab 	j	9d001aac <_ADC1Interrupt>
9d001684:	00000000 	nop

Disassembly of section .vector_37:

9d0016a0 <.vector_37>:
9d0016a0:	0b4006ab 	j	9d001aac <_ADC1Interrupt>
9d0016a4:	00000000 	nop

Disassembly of section .vector_40:

9d001700 <.vector_40>:
9d001700:	0b4006ab 	j	9d001aac <_ADC1Interrupt>
9d001704:	00000000 	nop

Disassembly of section .vector_41:

9d001720 <.vector_41>:
9d001720:	0b4006ab 	j	9d001aac <_ADC1Interrupt>
9d001724:	00000000 	nop

Disassembly of section .vector_42:

9d001740 <.vector_42>:
9d001740:	0b4006ab 	j	9d001aac <_ADC1Interrupt>
9d001744:	00000000 	nop

Disassembly of section .vector_43:

9d001760 <.vector_43>:
9d001760:	0b4006ab 	j	9d001aac <_ADC1Interrupt>
9d001764:	00000000 	nop

Disassembly of section .text:

9d001a90 <_main_entry>:
9d001a90:	3c1a9d00 	lui	k0,0x9d00
9d001a94:	275a1b0d 	addiu	k0,k0,6925
9d001a98:	03400008 	jr	k0
9d001a9c:	00000000 	nop
9d001aa0:	00000000 	nop
9d001aa4:	1000ffff 	b	9d001aa4 <_main_entry+0x14>
9d001aa8:	00000000 	nop

9d001aac <_ADC1Interrupt>:
9d001aac:	42000018 	eret

9d001ab0 <led_flip>:
9d001ab0:	b407      	lw	a0,9d001acc <led_flip+0x1c>
9d001ab2:	6b01      	li	v1,1
9d001ab4:	9c40      	lw	v0,0(a0)
9d001ab6:	aca0      	lhu	a1,0(a0)
9d001ab8:	3246      	srl	v0,1
9d001aba:	ea6c      	and	v0,v1
9d001abc:	ea6e      	xor	v0,v1
9d001abe:	3344      	sll	v1,v0,1
9d001ac0:	6a03      	li	v0,3
9d001ac2:	ea4b      	neg	v0
9d001ac4:	eaac      	and	v0,a1
9d001ac6:	ea6d      	or	v0,v1
9d001ac8:	e820      	jr	ra
9d001aca:	cc40      	sh	v0,0(a0)
9d001acc:	6030      	bteqz	9d001b2e <main+0x22>
9d001ace:	bf88      	lwu	a0,32(a3)

9d001ad0 <led_blink>:
9d001ad0:	b308      	lw	v1,9d001af0 <led_blink+0x20>
9d001ad2:	b409      	lw	a0,9d001af4 <led_blink+0x24>
9d001ad4:	9b40      	lw	v0,0(v1)
9d001ad6:	4a01      	addiu	v0,1
9d001ad8:	ec42      	slt	a0,v0
9d001ada:	6102      	btnez	9d001ae0 <led_blink+0x10>
9d001adc:	e820      	jr	ra
9d001ade:	db40      	sw	v0,0(v1)
9d001ae0:	6a00      	li	v0,0
9d001ae2:	64c3      	save	24,ra
9d001ae4:	181a 06ac 	jal	9d001ab0 <led_flip>
9d001ae8:	db40      	sw	v0,0(v1)
9d001aea:	6443      	restore	24,ra
9d001aec:	e8a0      	jrc	ra
9d001aee:	6500      	nop
9d001af0:	0000      	addiu	s0,sp,0
9d001af2:	a000      	lbu	s0,0(s0)
9d001af4:	1a7f 0006 	jal	9fcc0018 <_data_image_begin+0x2cbd200>

9d001af8 <ei>:
9d001af8:	24031000 	li	v1,4096
9d001afc:	3c02bf88 	lui	v0,0xbf88
9d001b00:	ac431008 	sw	v1,4104(v0)
9d001b04:	0b400955 	j	9d002554 <INTEnableInterrupts>
9d001b08:	00000000 	nop

9d001b0c <main>:
9d001b0c:	64e3      	save	24,ra,s0
9d001b0e:	b31c      	lw	v1,9d001b7c <main+0x70>
9d001b10:	6a09      	li	v0,9
9d001b12:	ab80      	lhu	a0,0(v1)
9d001b14:	ea4b      	neg	v0
9d001b16:	ea8c      	and	v0,a0
9d001b18:	b41a      	lw	a0,9d001b80 <main+0x74>
9d001b1a:	cb40      	sh	v0,0(v1)
9d001b1c:	6a00      	li	v0,0
9d001b1e:	b31a      	lw	v1,9d001b84 <main+0x78>
9d001b20:	db40      	sw	v0,0(v1)
9d001b22:	b31a      	lw	v1,9d001b88 <main+0x7c>
9d001b24:	db40      	sw	v0,0(v1)
9d001b26:	ac60      	lhu	v1,0(a0)
9d001b28:	4afd      	addiu	v0,-3
9d001b2a:	eb4c      	and	v1,v0
9d001b2c:	cc60      	sh	v1,0(a0)
9d001b2e:	b318      	lw	v1,9d001b8c <main+0x80>
9d001b30:	ab80      	lhu	a0,0(v1)
9d001b32:	ea8c      	and	v0,a0
9d001b34:	cb40      	sh	v0,0(v1)
9d001b36:	b317      	lw	v1,9d001b90 <main+0x84>
9d001b38:	6a80      	li	v0,128
9d001b3a:	ab80      	lhu	a0,0(v1)
9d001b3c:	ea8d      	or	v0,a0
9d001b3e:	181a 07d5 	jal	9d001f54 <init_vga>
9d001b42:	cb40      	sh	v0,0(v1)
9d001b44:	b714      	lw	a3,9d001b94 <main+0x88>
9d001b46:	f010 6d00 	li	a1,32768
9d001b4a:	f402 6e00 	li	a2,5120
9d001b4e:	181a 08a9 	jal	9d0022a4 <SerialConfigure>
9d001b52:	6c00      	li	a0,0
9d001b54:	1c1a 06be 	jalx	9d001af8 <ei>
9d001b58:	6500      	nop
9d001b5a:	181a 079a 	jal	9d001e68 <gr_test>
9d001b5e:	6500      	nop
9d001b60:	181a 08f1 	jal	9d0023c4 <Serial1GetKey>
9d001b64:	6500      	nop
9d001b66:	6782      	move	a0,v0
9d001b68:	6702      	move	s0,v0
9d001b6a:	1c1a 08d6 	jalx	9d002358 <Serial1WriteChar>
9d001b6e:	ec91      	seb	a0
9d001b70:	700d      	cmpi	s0,13
9d001b72:	61f6      	btnez	9d001b60 <main+0x54>
9d001b74:	1c1a 08d6 	jalx	9d002358 <Serial1WriteChar>
9d001b78:	6c0a      	li	a0,10
9d001b7a:	17f2      	b	9d001b60 <main+0x54>
9d001b7c:	f200 bf80 	lwu	a0,512(a3)
9d001b80:	6010      	bteqz	9d001ba2 <SPI2_mode+0xa>
9d001b82:	bf88      	lwu	a0,32(a3)
9d001b84:	6000      	bteqz	9d001b86 <main+0x7a>
9d001b86:	bf88      	lwu	a0,32(a3)
9d001b88:	6100      	btnez	9d001b8a <main+0x7e>
9d001b8a:	bf88      	lwu	a0,32(a3)
9d001b8c:	6030      	bteqz	9d001bee <SPI2_init+0x1e>
9d001b8e:	bf88      	lwu	a0,32(a3)
9d001b90:	6110      	btnez	9d001bb2 <SPI2_mode+0x1a>
9d001b92:	bf88      	lwu	a0,32(a3)
9d001b94:	a120      	lbu	s1,0(s1)
9d001b96:	0007      	addiu	s0,sp,28

9d001b98 <SPI2_mode>:
9d001b98:	b30b      	lw	v1,9d001bc4 <SPI2_mode+0x2c>
9d001b9a:	6a41      	li	v0,65
9d001b9c:	9ba0      	lw	a1,0(v1)
9d001b9e:	ea4b      	neg	v0
9d001ba0:	ec11      	zeb	a0
9d001ba2:	eaac      	and	v0,a1
9d001ba4:	7401      	cmpi	a0,1
9d001ba6:	db40      	sw	v0,0(v1)
9d001ba8:	6103      	btnez	9d001bb0 <SPI2_mode+0x18>
9d001baa:	f031 6b04 	li	v1,34852
9d001bae:	1003      	b	9d001bb6 <SPI2_mode+0x1e>
9d001bb0:	2c04      	bnez	a0,9d001bba <SPI2_mode+0x22>
9d001bb2:	f010 6b00 	li	v1,32768
9d001bb6:	b205      	lw	v0,9d001bc8 <SPI2_mode+0x30>
9d001bb8:	da60      	sw	v1,0(v0)
9d001bba:	f300 6b00 	li	v1,768
9d001bbe:	b204      	lw	v0,9d001bcc <SPI2_mode+0x34>
9d001bc0:	e820      	jr	ra
9d001bc2:	da60      	sw	v1,0(v0)
9d001bc4:	5a10      	sltiu	v0,16
9d001bc6:	bf80      	lwu	a0,0(a3)
9d001bc8:	5a00      	sltiu	v0,0
9d001bca:	bf80      	lwu	a0,0(a3)
9d001bcc:	5a40      	sltiu	v0,64
9d001bce:	bf80      	lwu	a0,0(a3)

9d001bd0 <SPI2_init>:
9d001bd0:	f010 6b00 	li	v1,32768
9d001bd4:	b20a      	lw	v0,9d001bfc <SPI2_init+0x2c>
9d001bd6:	64e3      	save	24,ra,s0
9d001bd8:	da60      	sw	v1,0(v0)
9d001bda:	b20a      	lw	v0,9d001c00 <SPI2_init+0x30>
9d001bdc:	6804      	li	s0,4
9d001bde:	9a40      	lw	v0,0(v0)
9d001be0:	6c01      	li	a0,1
9d001be2:	b209      	lw	v0,9d001c04 <SPI2_init+0x34>
9d001be4:	da00      	sw	s0,0(v0)
9d001be6:	181a 06e6 	jal	9d001b98 <SPI2_mode>
9d001bea:	6500      	nop
9d001bec:	b207      	lw	v0,9d001c08 <SPI2_init+0x38>
9d001bee:	f004 6b00 	li	v1,8192
9d001bf2:	da00      	sw	s0,0(v0)
9d001bf4:	b206      	lw	v0,9d001c0c <SPI2_init+0x3c>
9d001bf6:	da60      	sw	v1,0(v0)
9d001bf8:	6463      	restore	24,ra,s0
9d001bfa:	e8a0      	jrc	ra
9d001bfc:	5a04      	sltiu	v0,4
9d001bfe:	bf80      	lwu	a0,0(a3)
9d001c00:	5a20      	sltiu	v0,32
9d001c02:	bf80      	lwu	a0,0(a3)
9d001c04:	5a30      	sltiu	v0,48
9d001c06:	bf80      	lwu	a0,0(a3)
9d001c08:	fb60      	daddiu	sp,768
9d001c0a:	bf80      	lwu	a0,0(a3)
9d001c0c:	6114      	btnez	9d001c36 <dma_init+0x26>
9d001c0e:	bf88      	lwu	a0,32(a3)

9d001c10 <dma_init>:
9d001c10:	6a00      	li	v0,0
9d001c12:	b40f      	lw	a0,9d001c4c <dma_init+0x3c>
9d001c14:	3348      	sll	v1,v0,2
9d001c16:	e38d      	addu	v1,a0
9d001c18:	4287      	addiu	a0,v0,7
9d001c1a:	4c01      	addiu	a0,1
9d001c1c:	ea8a      	cmp	v0,a0
9d001c1e:	6004      	bteqz	9d001c28 <dma_init+0x18>
9d001c20:	db40      	sw	v0,0(v1)
9d001c22:	4a01      	addiu	v0,1
9d001c24:	4b04      	addiu	v1,4
9d001c26:	17fa      	b	9d001c1c <dma_init+0xc>
9d001c28:	f780 7400 	cmpi	a0,1920
9d001c2c:	6744      	move	v0,a0
9d001c2e:	61f1      	btnez	9d001c12 <dma_init+0x2>
9d001c30:	64c3      	save	24,ra
9d001c32:	6c01      	li	a0,1
9d001c34:	6d02      	li	a1,2
9d001c36:	1c1a 0971 	jalx	9d0025c4 <DmaChnOpen>
9d001c3a:	6e00      	li	a2,0
9d001c3c:	f406 6d10 	li	a1,13328
9d001c40:	1c1a 09ad 	jalx	9d0026b4 <DmaChnWriteEventControlFlags>
9d001c44:	6c01      	li	a0,1
9d001c46:	6443      	restore	24,ra
9d001c48:	e8a0      	jrc	ra
9d001c4a:	6500      	nop
9d001c4c:	011c      	addiu	s1,sp,112
9d001c4e:	a000      	lbu	s0,0(s0)

9d001c50 <dma_kick>:
9d001c50:	27bdffe0 	addiu	sp,sp,-32
9d001c54:	afb00018 	sw	s0,24(sp)
9d001c58:	3c10a000 	lui	s0,0xa000
9d001c5c:	24030004 	li	v1,4
9d001c60:	96020004 	lhu	v0,4(s0)
9d001c64:	3c05a000 	lui	a1,0xa000
9d001c68:	00021042 	srl	v0,v0,0x1
9d001c6c:	00021140 	sll	v0,v0,0x5
9d001c70:	24a5011c 	addiu	a1,a1,284
9d001c74:	3c06bf80 	lui	a2,0xbf80
9d001c78:	afa30010 	sw	v1,16(sp)
9d001c7c:	afa30014 	sw	v1,20(sp)
9d001c80:	00a22821 	addu	a1,a1,v0
9d001c84:	24040001 	li	a0,1
9d001c88:	24c65a20 	addiu	a2,a2,23072
9d001c8c:	afbf001c 	sw	ra,28(sp)
9d001c90:	0f4009b9 	jal	9d0026e4 <DmaChnSetTxfer>
9d001c94:	24070020 	li	a3,32
9d001c98:	24040001 	li	a0,1
9d001c9c:	00002821 	move	a1,zero
9d001ca0:	0f4009e0 	jal	9d002780 <DmaChnStartTxfer>
9d001ca4:	00003021 	move	a2,zero
9d001ca8:	96020004 	lhu	v0,4(s0)
9d001cac:	8fbf001c 	lw	ra,28(sp)
9d001cb0:	24420001 	addiu	v0,v0,1
9d001cb4:	a6020004 	sh	v0,4(s0)
9d001cb8:	8fb00018 	lw	s0,24(sp)
9d001cbc:	03e00008 	jr	ra
9d001cc0:	27bd0020 	addiu	sp,sp,32

9d001cc4 <dma_clear>:
9d001cc4:	6b00      	li	v1,0
9d001cc6:	b202      	lw	v0,9d001ccc <dma_clear+0x8>
9d001cc8:	e820      	jr	ra
9d001cca:	ca60      	sh	v1,0(v0)
9d001ccc:	0004      	addiu	s0,sp,16
9d001cce:	a000      	lbu	s0,0(s0)

9d001cd0 <p_adr>:
9d001cd0:	f100 5c00 	sltiu	a0,256
9d001cd4:	6a00      	li	v0,0
9d001cd6:	6008      	bteqz	9d001ce8 <p_adr+0x18>
9d001cd8:	5dc8      	sltiu	a1,200
9d001cda:	6006      	bteqz	9d001ce8 <p_adr+0x18>
9d001cdc:	35ac      	sll	a1,3
9d001cde:	3497      	sra	a0,5
9d001ce0:	e595      	addu	a1,a0
9d001ce2:	35a8      	sll	a1,2
9d001ce4:	b202      	lw	v0,9d001cec <p_adr+0x1c>
9d001ce6:	e549      	addu	v0,a1,v0
9d001ce8:	e8a0      	jrc	ra
9d001cea:	6500      	nop
9d001cec:	011c      	addiu	s1,sp,112
9d001cee:	a000      	lbu	s0,0(s0)

9d001cf0 <pset>:
9d001cf0:	64e3      	save	24,ra,s0
9d001cf2:	181a 0734 	jal	9d001cd0 <p_adr>
9d001cf6:	6704      	move	s0,a0
9d001cf8:	2205      	beqz	v0,9d001d04 <pset+0x14>
9d001cfa:	b304      	lw	v1,9d001d08 <pset+0x18>
9d001cfc:	9a80      	lw	a0,0(v0)
9d001cfe:	e866      	srlv	v1,s0
9d001d00:	eb8d      	or	v1,a0
9d001d02:	da60      	sw	v1,0(v0)
9d001d04:	6463      	restore	24,ra,s0
9d001d06:	e8a0      	jrc	ra
9d001d08:	0000      	addiu	s0,sp,0
9d001d0a:	8000      	lb	s0,0(s0)

9d001d0c <gr_circle.part.0>:
9d001d0c:	eed8      	mult	a2,a2
9d001d0e:	ea12      	mflo	v0
9d001d10:	64f8      	save	64,ra,s0-s1
9d001d12:	6b00      	li	v1,0
9d001d14:	6724      	move	s1,a0
9d001d16:	6705      	move	s0,a1
9d001d18:	d207      	sw	v0,28(sp)
9d001d1a:	9207      	lw	v0,28(sp)
9d001d1c:	d309      	sw	v1,36(sp)
9d001d1e:	eada      	div	zero,v0,a2
9d001d20:	2e01      	bnez	a2,9d001d24 <gr_circle.part.0+0x18>
9d001d22:	e8e5      	break	7
9d001d24:	d60a      	sw	a2,40(sp)
9d001d26:	ea12      	mflo	v0
9d001d28:	ebda      	div	zero,v1,a2
9d001d2a:	2e01      	bnez	a2,9d001d2e <gr_circle.part.0+0x22>
9d001d2c:	e8e5      	break	7
9d001d2e:	d204      	sw	v0,16(sp)
9d001d30:	ea12      	mflo	v0
9d001d32:	ec12      	mflo	a0
9d001d34:	d205      	sw	v0,20(sp)
9d001d36:	9204      	lw	v0,16(sp)
9d001d38:	e149      	addu	v0,s1,v0
9d001d3a:	d206      	sw	v0,24(sp)
9d001d3c:	e089      	addu	v0,s0,a0
9d001d3e:	9406      	lw	a0,24(sp)
9d001d40:	67a2      	move	a1,v0
9d001d42:	181a 073c 	jal	9d001cf0 <pset>
9d001d46:	d208      	sw	v0,32(sp)
9d001d48:	9404      	lw	a0,16(sp)
9d001d4a:	9208      	lw	v0,32(sp)
9d001d4c:	e19f      	subu	a3,s1,a0
9d001d4e:	6787      	move	a0,a3
9d001d50:	67a2      	move	a1,v0
9d001d52:	181a 073c 	jal	9d001cf0 <pset>
9d001d56:	d708      	sw	a3,32(sp)
9d001d58:	9405      	lw	a0,20(sp)
9d001d5a:	9708      	lw	a3,32(sp)
9d001d5c:	e08b      	subu	v0,s0,a0
9d001d5e:	67a2      	move	a1,v0
9d001d60:	6787      	move	a0,a3
9d001d62:	181a 073c 	jal	9d001cf0 <pset>
9d001d66:	d208      	sw	v0,32(sp)
9d001d68:	9208      	lw	v0,32(sp)
9d001d6a:	9406      	lw	a0,24(sp)
9d001d6c:	181a 073c 	jal	9d001cf0 <pset>
9d001d70:	67a2      	move	a1,v0
9d001d72:	9205      	lw	v0,20(sp)
9d001d74:	9404      	lw	a0,16(sp)
9d001d76:	e149      	addu	v0,s1,v0
9d001d78:	d206      	sw	v0,24(sp)
9d001d7a:	e089      	addu	v0,s0,a0
9d001d7c:	9406      	lw	a0,24(sp)
9d001d7e:	67a2      	move	a1,v0
9d001d80:	181a 073c 	jal	9d001cf0 <pset>
9d001d84:	d208      	sw	v0,32(sp)
9d001d86:	9405      	lw	a0,20(sp)
9d001d88:	9208      	lw	v0,32(sp)
9d001d8a:	e19f      	subu	a3,s1,a0
9d001d8c:	6787      	move	a0,a3
9d001d8e:	67a2      	move	a1,v0
9d001d90:	181a 073c 	jal	9d001cf0 <pset>
9d001d94:	d708      	sw	a3,32(sp)
9d001d96:	9404      	lw	a0,16(sp)
9d001d98:	9708      	lw	a3,32(sp)
9d001d9a:	e08b      	subu	v0,s0,a0
9d001d9c:	67a2      	move	a1,v0
9d001d9e:	6787      	move	a0,a3
9d001da0:	181a 073c 	jal	9d001cf0 <pset>
9d001da4:	d208      	sw	v0,32(sp)
9d001da6:	9208      	lw	v0,32(sp)
9d001da8:	9406      	lw	a0,24(sp)
9d001daa:	181a 073c 	jal	9d001cf0 <pset>
9d001dae:	67a2      	move	a1,v0
9d001db0:	9207      	lw	v0,28(sp)
9d001db2:	9405      	lw	a0,20(sp)
9d001db4:	9309      	lw	v1,36(sp)
9d001db6:	e289      	addu	v0,a0
9d001db8:	960a      	lw	a2,40(sp)
9d001dba:	d207      	sw	v0,28(sp)
9d001dbc:	9204      	lw	v0,16(sp)
9d001dbe:	9407      	lw	a0,28(sp)
9d001dc0:	e34f      	subu	v1,v0
9d001dc2:	ea6b      	neg	v0,v1
9d001dc4:	ec42      	slt	a0,v0
9d001dc6:	60a9      	bteqz	9d001d1a <gr_circle.part.0+0xe>
9d001dc8:	6478      	restore	64,ra,s0-s1
9d001dca:	e8a0      	jrc	ra

9d001dcc <gr_line>:
9d001dcc:	ee82      	slt	a2,a0
9d001dce:	64f7      	save	56,ra,s0-s1
9d001dd0:	6764      	move	v1,a0
9d001dd2:	6745      	move	v0,a1
9d001dd4:	6004      	bteqz	9d001dde <gr_line+0x12>
9d001dd6:	6747      	move	v0,a3
9d001dd8:	6766      	move	v1,a2
9d001dda:	67e5      	move	a3,a1
9d001ddc:	67c4      	move	a2,a0
9d001dde:	e743      	subu	s0,a3,v0
9d001de0:	6c01      	li	a0,1
9d001de2:	5000      	slti	s0,0
9d001de4:	e667      	subu	s1,a2,v1
9d001de6:	d404      	sw	a0,16(sp)
9d001de8:	6003      	bteqz	9d001df0 <gr_line+0x24>
9d001dea:	4cfe      	addiu	a0,-2
9d001dec:	e80b      	neg	s0
9d001dee:	d404      	sw	a0,16(sp)
9d001df0:	e902      	slt	s1,s0
9d001df2:	601c      	bteqz	9d001e2c <gr_line+0x60>
9d001df4:	6c02      	li	a0,2
9d001df6:	e89a      	div	zero,s0,a0
9d001df8:	2c01      	bnez	a0,9d001dfc <gr_line+0x30>
9d001dfa:	e8e5      	break	7
9d001dfc:	40e1      	addiu	a3,s0,1
9d001dfe:	ee12      	mflo	a2
9d001e00:	6783      	move	a0,v1
9d001e02:	67a2      	move	a1,v0
9d001e04:	d208      	sw	v0,32(sp)
9d001e06:	d307      	sw	v1,28(sp)
9d001e08:	d605      	sw	a2,20(sp)
9d001e0a:	181a 073c 	jal	9d001cf0 <pset>
9d001e0e:	d706      	sw	a3,24(sp)
9d001e10:	9605      	lw	a2,20(sp)
9d001e12:	9208      	lw	v0,32(sp)
9d001e14:	9404      	lw	a0,16(sp)
9d001e16:	e639      	addu	a2,s1
9d001e18:	ee02      	slt	a2,s0
9d001e1a:	e289      	addu	v0,a0
9d001e1c:	9307      	lw	v1,28(sp)
9d001e1e:	9706      	lw	a3,24(sp)
9d001e20:	6102      	btnez	9d001e26 <gr_line+0x5a>
9d001e22:	e61b      	subu	a2,s0
9d001e24:	4b01      	addiu	v1,1
9d001e26:	4fff      	addiu	a3,-1
9d001e28:	2feb      	bnez	a3,9d001e00 <gr_line+0x34>
9d001e2a:	101c      	b	9d001e64 <gr_line+0x98>
9d001e2c:	6c02      	li	a0,2
9d001e2e:	e99a      	div	zero,s1,a0
9d001e30:	2c01      	bnez	a0,9d001e34 <gr_line+0x68>
9d001e32:	e8e5      	break	7
9d001e34:	41e1      	addiu	a3,s1,1
9d001e36:	ee12      	mflo	a2
9d001e38:	4381      	addiu	a0,v1,1
9d001e3a:	e431      	addu	a0,s1
9d001e3c:	e4f3      	subu	a0,a3
9d001e3e:	67a2      	move	a1,v0
9d001e40:	d208      	sw	v0,32(sp)
9d001e42:	d307      	sw	v1,28(sp)
9d001e44:	d605      	sw	a2,20(sp)
9d001e46:	181a 073c 	jal	9d001cf0 <pset>
9d001e4a:	d706      	sw	a3,24(sp)
9d001e4c:	9605      	lw	a2,20(sp)
9d001e4e:	9208      	lw	v0,32(sp)
9d001e50:	e619      	addu	a2,s0
9d001e52:	ee22      	slt	a2,s1
9d001e54:	9307      	lw	v1,28(sp)
9d001e56:	9706      	lw	a3,24(sp)
9d001e58:	6103      	btnez	9d001e60 <gr_line+0x94>
9d001e5a:	9404      	lw	a0,16(sp)
9d001e5c:	e63b      	subu	a2,s1
9d001e5e:	e289      	addu	v0,a0
9d001e60:	4fff      	addiu	a3,-1
9d001e62:	2fea      	bnez	a3,9d001e38 <gr_line+0x6c>
9d001e64:	6477      	restore	56,ra,s0-s1
9d001e66:	e8a0      	jrc	ra

9d001e68 <gr_test>:
9d001e68:	64e4      	save	32,ra,s0
9d001e6a:	6800      	li	s0,0
9d001e6c:	6a01      	li	v0,1
9d001e6e:	6eff      	li	a2,255
9d001e70:	6790      	move	a0,s0
9d001e72:	67f0      	move	a3,s0
9d001e74:	d204      	sw	v0,16(sp)
9d001e76:	6d00      	li	a1,0
9d001e78:	4e01      	addiu	a2,1
9d001e7a:	181a 0773 	jal	9d001dcc <gr_line>
9d001e7e:	4810      	addiu	s0,16
9d001e80:	70d0      	cmpi	s0,208
9d001e82:	61f4      	btnez	9d001e6c <gr_test+0x4>
9d001e84:	6c80      	li	a0,128
9d001e86:	6d64      	li	a1,100
9d001e88:	181a 0743 	jal	9d001d0c <gr_circle.part.0>
9d001e8c:	6e64      	li	a2,100
9d001e8e:	6464      	restore	32,ra,s0
9d001e90:	e8a0      	jrc	ra
9d001e92:	6500      	nop

9d001e94 <wait_125ns>:
9d001e94:	00001021 	move	v0,zero
9d001e98:	0044182a 	slt	v1,v0,a0
9d001e9c:	10600004 	beqz	v1,9d001eb0 <wait_125ns+0x1c>
9d001ea0:	00000000 	nop
9d001ea4:	00000000 	nop
9d001ea8:	0b4007a6 	j	9d001e98 <wait_125ns+0x4>
9d001eac:	24420001 	addiu	v0,v0,1
9d001eb0:	03e00008 	jr	ra
9d001eb4:	00000000 	nop

9d001eb8 <init_timer1>:
9d001eb8:	6b00      	li	v1,0
9d001eba:	b20b      	lw	v0,9d001ee4 <init_timer1+0x2c>
9d001ebc:	b40b      	lw	a0,9d001ee8 <init_timer1+0x30>
9d001ebe:	da60      	sw	v1,0(v0)
9d001ec0:	dc60      	sw	v1,0(a0)
9d001ec2:	f3e1 6c09 	li	a0,3049
9d001ec6:	b30a      	lw	v1,9d001eec <init_timer1+0x34>
9d001ec8:	db80      	sw	a0,0(v1)
9d001eca:	6c1c      	li	a0,28
9d001ecc:	b309      	lw	v1,9d001ef0 <init_timer1+0x38>
9d001ece:	db80      	sw	a0,0(v1)
9d001ed0:	6b10      	li	v1,16
9d001ed2:	b409      	lw	a0,9d001ef4 <init_timer1+0x3c>
9d001ed4:	dc60      	sw	v1,0(a0)
9d001ed6:	b409      	lw	a0,9d001ef8 <init_timer1+0x40>
9d001ed8:	dc60      	sw	v1,0(a0)
9d001eda:	f010 6b00 	li	v1,32768
9d001ede:	e820      	jr	ra
9d001ee0:	da60      	sw	v1,0(v0)
9d001ee2:	6500      	nop
9d001ee4:	0600      	addiu	a2,sp,0
9d001ee6:	bf80      	lwu	a0,0(a3)
9d001ee8:	0610      	addiu	a2,sp,64
9d001eea:	bf80      	lwu	a0,0(a3)
9d001eec:	0620      	addiu	a2,sp,128
9d001eee:	bf80      	lwu	a0,0(a3)
9d001ef0:	10a8      	b	9d002042 <_Tmr1Interrupt+0x6e>
9d001ef2:	bf88      	lwu	a0,32(a3)
9d001ef4:	1034      	b	9d001f5e <init_vga+0xa>
9d001ef6:	bf88      	lwu	a0,32(a3)
9d001ef8:	1068      	b	9d001fca <gen_VSYNC+0x52>
9d001efa:	bf88      	lwu	a0,32(a3)

9d001efc <init_timer2>:
9d001efc:	6a00      	li	v0,0
9d001efe:	b30a      	lw	v1,9d001f24 <init_timer2+0x28>
9d001f00:	db40      	sw	v0,0(v1)
9d001f02:	b30a      	lw	v1,9d001f28 <init_timer2+0x2c>
9d001f04:	db40      	sw	v0,0(v1)
9d001f06:	f361 6b12 	li	v1,2930
9d001f0a:	b209      	lw	v0,9d001f2c <init_timer2+0x30>
9d001f0c:	da60      	sw	v1,0(v0)
9d001f0e:	6b14      	li	v1,20
9d001f10:	b208      	lw	v0,9d001f30 <init_timer2+0x34>
9d001f12:	da60      	sw	v1,0(v0)
9d001f14:	f200 6a00 	li	v0,512
9d001f18:	b307      	lw	v1,9d001f34 <init_timer2+0x38>
9d001f1a:	db40      	sw	v0,0(v1)
9d001f1c:	b307      	lw	v1,9d001f38 <init_timer2+0x3c>
9d001f1e:	e820      	jr	ra
9d001f20:	db40      	sw	v0,0(v1)
9d001f22:	6500      	nop
9d001f24:	0800      	la	s0,9d001f24 <init_timer2+0x28>
9d001f26:	bf80      	lwu	a0,0(a3)
9d001f28:	0810      	la	s0,9d001f68 <init_vga+0x14>
9d001f2a:	bf80      	lwu	a0,0(a3)
9d001f2c:	0820      	la	s0,9d001fac <gen_VSYNC+0x34>
9d001f2e:	bf80      	lwu	a0,0(a3)
9d001f30:	10b8      	b	9d0020a2 <_Tmr1Interrupt+0xce>
9d001f32:	bf88      	lwu	a0,32(a3)
9d001f34:	1034      	b	9d001f9e <gen_VSYNC+0x26>
9d001f36:	bf88      	lwu	a0,32(a3)
9d001f38:	1068      	b	9d00200a <_Tmr1Interrupt+0x36>
9d001f3a:	bf88      	lwu	a0,32(a3)

9d001f3c <init_vga_port>:
9d001f3c:	f004 6a01 	li	v0,8193
9d001f40:	b303      	lw	v1,9d001f4c <init_vga_port+0x10>
9d001f42:	db40      	sw	v0,0(v1)
9d001f44:	b303      	lw	v1,9d001f50 <init_vga_port+0x14>
9d001f46:	e820      	jr	ra
9d001f48:	db40      	sw	v0,0(v1)
9d001f4a:	6500      	nop
9d001f4c:	6114      	btnez	9d001f76 <init_vga+0x22>
9d001f4e:	bf88      	lwu	a0,32(a3)
9d001f50:	6138      	btnez	9d001fc2 <gen_VSYNC+0x4a>
9d001f52:	bf88      	lwu	a0,32(a3)

9d001f54 <init_vga>:
9d001f54:	64c3      	save	24,ra
9d001f56:	181a 07cf 	jal	9d001f3c <init_vga_port>
9d001f5a:	6500      	nop
9d001f5c:	181a 06f4 	jal	9d001bd0 <SPI2_init>
9d001f60:	6500      	nop
9d001f62:	181a 0704 	jal	9d001c10 <dma_init>
9d001f66:	6500      	nop
9d001f68:	181a 07ae 	jal	9d001eb8 <init_timer1>
9d001f6c:	6500      	nop
9d001f6e:	181a 07bf 	jal	9d001efc <init_timer2>
9d001f72:	6500      	nop
9d001f74:	6443      	restore	24,ra
9d001f76:	e8a0      	jrc	ra

9d001f78 <gen_VSYNC>:
9d001f78:	b215      	lw	v0,9d001fc8 <gen_VSYNC+0x50>
9d001f7a:	64c3      	save	24,ra
9d001f7c:	aa60      	lhu	v1,0(v0)
9d001f7e:	4b01      	addiu	v1,1
9d001f80:	ebb1      	seh	v1
9d001f82:	ca60      	sh	v1,0(v0)
9d001f84:	aa60      	lhu	v1,0(v0)
9d001f86:	ebb1      	seh	v1
9d001f88:	53c8      	slti	v1,200
9d001f8a:	6005      	bteqz	9d001f96 <gen_VSYNC+0x1e>
9d001f8c:	aa80      	lhu	a0,0(v0)
9d001f8e:	1c1a 0714 	jalx	9d001c50 <dma_kick>
9d001f92:	ecb1      	seh	a0
9d001f94:	1019      	b	9d001fc8 <gen_VSYNC+0x50>
9d001f96:	6762      	move	v1,v0
9d001f98:	aa40      	lhu	v0,0(v0)
9d001f9a:	eab1      	seh	v0
9d001f9c:	52e2      	slti	v0,226
9d001f9e:	610a      	btnez	9d001fb4 <gen_VSYNC+0x3c>
9d001fa0:	ab40      	lhu	v0,0(v1)
9d001fa2:	eab1      	seh	v0
9d001fa4:	52e8      	slti	v0,232
9d001fa6:	6006      	bteqz	9d001fb4 <gen_VSYNC+0x3c>
9d001fa8:	f004 6c00 	li	a0,8192
9d001fac:	b209      	lw	v0,9d001fd0 <gen_VSYNC+0x58>
9d001fae:	da80      	sw	a0,0(v0)
9d001fb0:	6c01      	li	a0,1
9d001fb2:	da80      	sw	a0,0(v0)
9d001fb4:	ab40      	lhu	v0,0(v1)
9d001fb6:	eab1      	seh	v0
9d001fb8:	f100 5206 	slti	v0,262
9d001fbc:	6105      	btnez	9d001fc8 <gen_VSYNC+0x50>
9d001fbe:	6b00      	li	v1,0
9d001fc0:	b203      	lw	v0,9d001fcc <gen_VSYNC+0x54>
9d001fc2:	181a 0731 	jal	9d001cc4 <dma_clear>
9d001fc6:	ca60      	sh	v1,0(v0)
9d001fc8:	6443      	restore	24,ra
9d001fca:	e8a0      	jrc	ra
9d001fcc:	0006      	addiu	s0,sp,24
9d001fce:	a000      	lbu	s0,0(s0)
9d001fd0:	6134      	btnez	9d00203a <_Tmr1Interrupt+0x66>
9d001fd2:	bf88      	lwu	a0,32(a3)

9d001fd4 <_Tmr1Interrupt>:
9d001fd4:	401a6800 	mfc0	k0,c0_cause
9d001fd8:	401b7000 	mfc0	k1,c0_epc
9d001fdc:	27bdff90 	addiu	sp,sp,-112
9d001fe0:	afbb006c 	sw	k1,108(sp)
9d001fe4:	401b6000 	mfc0	k1,c0_status
9d001fe8:	001ad282 	srl	k0,k0,0xa
9d001fec:	afbb0068 	sw	k1,104(sp)
9d001ff0:	7f5b7a84 	ins	k1,k0,0xa,0x6
9d001ff4:	0000d012 	mflo	k0
9d001ff8:	7c1b2044 	ins	k1,zero,0x1,0x4
9d001ffc:	afba0064 	sw	k0,100(sp)
9d002000:	0000d010 	mfhi	k0
9d002004:	afba0060 	sw	k0,96(sp)
9d002008:	409b6000 	mtc0	k1,c0_status
9d00200c:	afa20018 	sw	v0,24(sp)
9d002010:	3c02bf88 	lui	v0,0xbf88
9d002014:	afbf005c 	sw	ra,92(sp)
9d002018:	8c421030 	lw	v0,4144(v0)
9d00201c:	afb90058 	sw	t9,88(sp)
9d002020:	7c420100 	ext	v0,v0,0x4,0x1
9d002024:	afb80054 	sw	t8,84(sp)
9d002028:	afb00050 	sw	s0,80(sp)
9d00202c:	afaf004c 	sw	t7,76(sp)
9d002030:	afae0048 	sw	t6,72(sp)
9d002034:	afad0044 	sw	t5,68(sp)
9d002038:	afac0040 	sw	t4,64(sp)
9d00203c:	afab003c 	sw	t3,60(sp)
9d002040:	afaa0038 	sw	t2,56(sp)
9d002044:	afa90034 	sw	t1,52(sp)
9d002048:	afa80030 	sw	t0,48(sp)
9d00204c:	afa7002c 	sw	a3,44(sp)
9d002050:	afa60028 	sw	a2,40(sp)
9d002054:	afa50024 	sw	a1,36(sp)
9d002058:	afa40020 	sw	a0,32(sp)
9d00205c:	afa3001c 	sw	v1,28(sp)
9d002060:	1040001c 	beqz	v0,9d0020d4 <_Tmr1Interrupt+0x100>
9d002064:	afa10014 	sw	at,20(sp)
9d002068:	24030010 	li	v1,16
9d00206c:	3c02bf88 	lui	v0,0xbf88
9d002070:	ac431034 	sw	v1,4148(v0)
9d002074:	3c02bf80 	lui	v0,0xbf80
9d002078:	34038000 	li	v1,0x8000
9d00207c:	ac400810 	sw	zero,2064(v0)
9d002080:	3c02bf80 	lui	v0,0xbf80
9d002084:	ac430800 	sw	v1,2048(v0)
9d002088:	24100001 	li	s0,1
9d00208c:	24032000 	li	v1,8192
9d002090:	3c02bf88 	lui	v0,0xbf88
9d002094:	24040028 	li	a0,40
9d002098:	ac436134 	sw	v1,24884(v0)
9d00209c:	ac506134 	sw	s0,24884(v0)
9d0020a0:	0f4007a5 	jal	9d001e94 <wait_125ns>
9d0020a4:	00000000 	nop
9d0020a8:	3c02bf88 	lui	v0,0xbf88
9d0020ac:	24040004 	li	a0,4
9d0020b0:	ac506138 	sw	s0,24888(v0)
9d0020b4:	0f4007a5 	jal	9d001e94 <wait_125ns>
9d0020b8:	00000000 	nop
9d0020bc:	774007de 	jalx	9d001f78 <gen_VSYNC>
9d0020c0:	00000000 	nop
9d0020c4:	3c03a000 	lui	v1,0xa000
9d0020c8:	8c620008 	lw	v0,8(v1)
9d0020cc:	24420001 	addiu	v0,v0,1
9d0020d0:	ac620008 	sw	v0,8(v1)
9d0020d4:	41606000 	di
9d0020d8:	000000c0 	ehb
9d0020dc:	8fba0064 	lw	k0,100(sp)
9d0020e0:	8fbf005c 	lw	ra,92(sp)
9d0020e4:	03400013 	mtlo	k0
9d0020e8:	8fba0060 	lw	k0,96(sp)
9d0020ec:	8fb90058 	lw	t9,88(sp)
9d0020f0:	03400011 	mthi	k0
9d0020f4:	8fb80054 	lw	t8,84(sp)
9d0020f8:	8fb00050 	lw	s0,80(sp)
9d0020fc:	8faf004c 	lw	t7,76(sp)
9d002100:	8fae0048 	lw	t6,72(sp)
9d002104:	8fad0044 	lw	t5,68(sp)
9d002108:	8fac0040 	lw	t4,64(sp)
9d00210c:	8fab003c 	lw	t3,60(sp)
9d002110:	8faa0038 	lw	t2,56(sp)
9d002114:	8fa90034 	lw	t1,52(sp)
9d002118:	8fa80030 	lw	t0,48(sp)
9d00211c:	8fa7002c 	lw	a3,44(sp)
9d002120:	8fa60028 	lw	a2,40(sp)
9d002124:	8fa50024 	lw	a1,36(sp)
9d002128:	8fa40020 	lw	a0,32(sp)
9d00212c:	8fa3001c 	lw	v1,28(sp)
9d002130:	8fa20018 	lw	v0,24(sp)
9d002134:	8fa10014 	lw	at,20(sp)
9d002138:	8fba006c 	lw	k0,108(sp)
9d00213c:	409a7000 	mtc0	k0,c0_epc
9d002140:	8fba0068 	lw	k0,104(sp)
9d002144:	27bd0070 	addiu	sp,sp,112
9d002148:	409a6000 	mtc0	k0,c0_status
9d00214c:	42000018 	eret

9d002150 <_Tmr2Interrupt>:
9d002150:	401a6800 	mfc0	k0,c0_cause
9d002154:	401b7000 	mfc0	k1,c0_epc
9d002158:	27bdfff0 	addiu	sp,sp,-16
9d00215c:	afbb000c 	sw	k1,12(sp)
9d002160:	401b6000 	mfc0	k1,c0_status
9d002164:	001ad282 	srl	k0,k0,0xa
9d002168:	afbb0008 	sw	k1,8(sp)
9d00216c:	7f5b7a84 	ins	k1,k0,0xa,0x6
9d002170:	7c1b2044 	ins	k1,zero,0x1,0x4
9d002174:	409b6000 	mtc0	k1,c0_status
9d002178:	afa20000 	sw	v0,0(sp)
9d00217c:	3c02bf88 	lui	v0,0xbf88
9d002180:	afa30004 	sw	v1,4(sp)
9d002184:	8c421030 	lw	v0,4144(v0)
9d002188:	7c420240 	ext	v0,v0,0x9,0x1
9d00218c:	1040000c 	beqz	v0,9d0021c0 <_Tmr2Interrupt+0x70>
9d002190:	24030200 	li	v1,512
9d002194:	3c02bf88 	lui	v0,0xbf88
9d002198:	ac431034 	sw	v1,4148(v0)
9d00219c:	3c02bf80 	lui	v0,0xbf80
9d0021a0:	ac400800 	sw	zero,2048(v0)
9d0021a4:	41626020 	ei	v0
	...
9d0021c0:	8fa30004 	lw	v1,4(sp)
9d0021c4:	8fa20000 	lw	v0,0(sp)
9d0021c8:	41606000 	di
9d0021cc:	000000c0 	ehb
9d0021d0:	8fba000c 	lw	k0,12(sp)
9d0021d4:	409a7000 	mtc0	k0,c0_epc
9d0021d8:	8fba0008 	lw	k0,8(sp)
9d0021dc:	27bd0010 	addiu	sp,sp,16
9d0021e0:	409a6000 	mtc0	k0,c0_status
9d0021e4:	42000018 	eret

9d0021e8 <FIFO_init>:
9d0021e8:	6a00      	li	v0,0
9d0021ea:	dca0      	sw	a1,0(a0)
9d0021ec:	dcc1      	sw	a2,4(a0)
9d0021ee:	dc42      	sw	v0,8(a0)
9d0021f0:	e820      	jr	ra
9d0021f2:	dc43      	sw	v0,12(a0)

9d0021f4 <FIFO_enqueue>:
9d0021f4:	9c62      	lw	v1,8(a0)
9d0021f6:	6a00      	li	v0,0
9d0021f8:	64b1      	save	8,s0-s1
9d0021fa:	eac2      	slt	v0,a2
9d0021fc:	600f      	bteqz	9d00221c <FIFO_enqueue+0x28>
9d0021fe:	e55d      	addu	a3,a1,v0
9d002200:	9c20      	lw	s1,0(a0)
9d002202:	8700      	lb	s0,0(a3)
9d002204:	e17d      	addu	a3,s1,v1
9d002206:	4b01      	addiu	v1,1
9d002208:	c700      	sb	s0,0(a3)
9d00220a:	9ce1      	lw	a3,4(a0)
9d00220c:	ebe2      	slt	v1,a3
9d00220e:	6101      	btnez	9d002212 <FIFO_enqueue+0x1e>
9d002210:	6b00      	li	v1,0
9d002212:	9c23      	lw	s1,12(a0)
9d002214:	eb2a      	cmp	v1,s1
9d002216:	6004      	bteqz	9d002220 <FIFO_enqueue+0x2c>
9d002218:	4a01      	addiu	v0,1
9d00221a:	17ef      	b	9d0021fa <FIFO_enqueue+0x6>
9d00221c:	dc62      	sw	v1,8(a0)
9d00221e:	1001      	b	9d002222 <FIFO_enqueue+0x2e>
9d002220:	6a00      	li	v0,0
9d002222:	6431      	restore	8,s0-s1
9d002224:	e8a0      	jrc	ra
9d002226:	6500      	nop

9d002228 <FIFO_getsize>:
9d002228:	9c62      	lw	v1,8(a0)
9d00222a:	9ca3      	lw	a1,12(a0)
9d00222c:	e3ab      	subu	v0,v1,a1
9d00222e:	5200      	slti	v0,0
9d002230:	6002      	bteqz	9d002236 <FIFO_getsize+0xe>
9d002232:	9c61      	lw	v1,4(a0)
9d002234:	e269      	addu	v0,v1
9d002236:	e8a0      	jrc	ra

9d002238 <FIFO_dequeue>:
9d002238:	9c63      	lw	v1,12(a0)
9d00223a:	6a00      	li	v0,0
9d00223c:	64a1      	save	8,s0
9d00223e:	eac2      	slt	v0,a2
9d002240:	6010      	bteqz	9d002262 <FIFO_dequeue+0x2a>
9d002242:	9ce2      	lw	a3,8(a0)
9d002244:	ebea      	cmp	v1,a3
9d002246:	600c      	bteqz	9d002260 <FIFO_dequeue+0x28>
9d002248:	9c00      	lw	s0,0(a0)
9d00224a:	e07d      	addu	a3,s0,v1
9d00224c:	4b01      	addiu	v1,1
9d00224e:	8700      	lb	s0,0(a3)
9d002250:	e55d      	addu	a3,a1,v0
9d002252:	c700      	sb	s0,0(a3)
9d002254:	9ce1      	lw	a3,4(a0)
9d002256:	ebe2      	slt	v1,a3
9d002258:	6101      	btnez	9d00225c <FIFO_dequeue+0x24>
9d00225a:	6b00      	li	v1,0
9d00225c:	4a01      	addiu	v0,1
9d00225e:	17ef      	b	9d00223e <FIFO_dequeue+0x6>
9d002260:	6767      	move	v1,a3
9d002262:	dc63      	sw	v1,12(a0)
9d002264:	6421      	restore	8,s0
9d002266:	e8a0      	jrc	ra

9d002268 <SerialSetDataRate>:
9d002268:	b20c      	lw	v0,9d002294 <SerialSetDataRate+0x2c>
9d00226a:	eaa3      	sltu	v0,a1
9d00226c:	6104      	btnez	9d002276 <SerialSetDataRate+0xe>
9d00226e:	5d2d      	sltiu	a1,45
9d002270:	6003      	bteqz	9d002278 <SerialSetDataRate+0x10>
9d002272:	6d2d      	li	a1,45
9d002274:	1001      	b	9d002278 <SerialSetDataRate+0x10>
9d002276:	67a2      	move	a1,v0
9d002278:	b409      	lw	a0,9d00229c <SerialSetDataRate+0x34>
9d00227a:	6b08      	li	v1,8
9d00227c:	acc0      	lhu	a2,0(a0)
9d00227e:	ebcd      	or	v1,a2
9d002280:	cc60      	sh	v1,0(a0)
9d002282:	33a7      	sra	v1,a1,1
9d002284:	e349      	addu	v0,v1,v0
9d002286:	eaba      	div	zero,v0,a1
9d002288:	2d01      	bnez	a1,9d00228c <SerialSetDataRate+0x24>
9d00228a:	e8e5      	break	7
9d00228c:	b305      	lw	v1,9d0022a0 <SerialSetDataRate+0x38>
9d00228e:	ea12      	mflo	v0
9d002290:	4aff      	addiu	v0,-1
9d002292:	e820      	jr	ra
9d002294:	db40      	sw	v0,0(v1)
9d002296:	6500      	nop
9d002298:	1b00 00b7 	jal	906002dc <_bmxdudba_address+0x905f82dc>
9d00229c:	6000      	bteqz	9d00229e <SerialSetDataRate+0x36>
9d00229e:	bf80      	lwu	a0,0(a3)
9d0022a0:	6040      	bteqz	9d002322 <SerialConfigure+0x7e>
9d0022a2:	bf80      	lwu	a0,0(a3)

9d0022a4 <SerialConfigure>:
9d0022a4:	f00c 64f5 	save	a0-a2,40,ra,s0-s1
9d0022a8:	6764      	move	v1,a0
9d0022aa:	68ff      	li	s0,255
9d0022ac:	eb11      	zeb	v1
9d0022ae:	4801      	addiu	s0,1
9d0022b0:	6725      	move	s1,a1
9d0022b2:	67d0      	move	a2,s0
9d0022b4:	b41f      	lw	a0,9d002330 <SerialConfigure+0x8c>
9d0022b6:	b520      	lw	a1,9d002334 <SerialConfigure+0x90>
9d0022b8:	d304      	sw	v1,16(sp)
9d0022ba:	181a 087a 	jal	9d0021e8 <FIFO_init>
9d0022be:	d705      	sw	a3,20(sp)
9d0022c0:	b61e      	lw	a2,9d002338 <SerialConfigure+0x94>
9d0022c2:	6a10      	li	v0,16
9d0022c4:	a680      	lbu	a0,0(a2)
9d0022c6:	ea4b      	neg	v0
9d0022c8:	67a4      	move	a1,a0
9d0022ca:	ed4c      	and	a1,v0
9d0022cc:	6c02      	li	a0,2
9d0022ce:	ecad      	or	a0,a1
9d0022d0:	b51b      	lw	a1,9d00233c <SerialConfigure+0x98>
9d0022d2:	c680      	sb	a0,0(a2)
9d0022d4:	a580      	lbu	a0,0(a1)
9d0022d6:	ea8c      	and	v0,a0
9d0022d8:	6c01      	li	a0,1
9d0022da:	ea8d      	or	v0,a0
9d0022dc:	b419      	lw	a0,9d002340 <SerialConfigure+0x9c>
9d0022de:	c540      	sb	v0,0(a1)
9d0022e0:	aca0      	lhu	a1,0(a0)
9d0022e2:	6a11      	li	v0,17
9d0022e4:	ea4b      	neg	v0
9d0022e6:	eaac      	and	v0,a1
9d0022e8:	cc40      	sh	v0,0(a0)
9d0022ea:	b417      	lw	a0,9d002344 <SerialConfigure+0xa0>
9d0022ec:	6a10      	li	v0,16
9d0022ee:	aca0      	lhu	a1,0(a0)
9d0022f0:	eaad      	or	v0,a1
9d0022f2:	cc40      	sh	v0,0(a0)
9d0022f4:	9304      	lw	v1,16(sp)
9d0022f6:	9705      	lw	a3,20(sp)
9d0022f8:	6783      	move	a0,v1
9d0022fa:	181a 089a 	jal	9d002268 <SerialSetDataRate>
9d0022fe:	67a7      	move	a1,a3
9d002300:	930c      	lw	v1,48(sp)
9d002302:	b212      	lw	v0,9d002348 <SerialConfigure+0xa4>
9d002304:	da20      	sw	s1,0(v0)
9d002306:	b212      	lw	v0,9d00234c <SerialConfigure+0xa8>
9d002308:	da60      	sw	v1,0(v0)
9d00230a:	b212      	lw	v0,9d002350 <SerialConfigure+0xac>
9d00230c:	6b1d      	li	v1,29
9d00230e:	9a80      	lw	a0,0(v0)
9d002310:	eb6b      	neg	v1
9d002312:	ec6c      	and	a0,v1
9d002314:	6b0c      	li	v1,12
9d002316:	eb8d      	or	v1,a0
9d002318:	da60      	sw	v1,0(v0)
9d00231a:	9a80      	lw	a0,0(v0)
9d00231c:	6b03      	li	v1,3
9d00231e:	eb8d      	or	v1,a0
9d002320:	da60      	sw	v1,0(v0)
9d002322:	b30d      	lw	v1,9d002354 <SerialConfigure+0xb0>
9d002324:	9b40      	lw	v0,0(v1)
9d002326:	ea0d      	or	v0,s0
9d002328:	db40      	sw	v0,0(v1)
9d00232a:	6475      	restore	40,ra,s0-s1
9d00232c:	e8a0      	jrc	ra
9d00232e:	6500      	nop
9d002330:	010c      	addiu	s1,sp,48
9d002332:	a000      	lbu	s0,0(s0)
9d002334:	000c      	addiu	s0,sp,48
9d002336:	a000      	lbu	s0,0(s0)
9d002338:	fa50      	sd	ra,640(sp)
9d00233a:	bf80      	lwu	a0,0(a3)
9d00233c:	fb3c      	daddiu	sp,480
9d00233e:	bf80      	lwu	a0,0(a3)
9d002340:	6110      	btnez	9d002362 <Serial1WriteChar+0xa>
9d002342:	bf88      	lwu	a0,32(a3)
9d002344:	6010      	bteqz	9d002366 <Serial1WriteChar+0xe>
9d002346:	bf88      	lwu	a0,32(a3)
9d002348:	6008      	bteqz	9d00235a <Serial1WriteChar+0x2>
9d00234a:	bf80      	lwu	a0,0(a3)
9d00234c:	6018      	bteqz	9d00237e <Serial1WriteChar+0x26>
9d00234e:	bf80      	lwu	a0,0(a3)
9d002350:	1110      	b	9d002572 <INTClearFlag+0x16>
9d002352:	bf88      	lwu	a0,32(a3)
9d002354:	1070      	b	9d002436 <_UART1Interrupt+0x56>
9d002356:	bf88      	lwu	a0,32(a3)

9d002358 <Serial1WriteChar>:
9d002358:	7c042420 	seb	a0,a0
9d00235c:	3c03bf80 	lui	v1,0xbf80
9d002360:	8c626010 	lw	v0,24592(v1)
9d002364:	7c420200 	ext	v0,v0,0x8,0x1
9d002368:	1040fffd 	beqz	v0,9d002360 <Serial1WriteChar+0x8>
9d00236c:	00000000 	nop
9d002370:	41606000 	di
9d002374:	3c02bf80 	lui	v0,0xbf80
9d002378:	ac446020 	sw	a0,24608(v0)
9d00237c:	03e00008 	jr	ra
9d002380:	41606020 	ei

9d002384 <Serial1Available>:
9d002384:	64c3      	save	24,ra
9d002386:	b404      	lw	a0,9d002394 <Serial1Available+0x10>
9d002388:	181a 088a 	jal	9d002228 <FIFO_getsize>
9d00238c:	6500      	nop
9d00238e:	6443      	restore	24,ra
9d002390:	e8a0      	jrc	ra
9d002392:	6500      	nop
9d002394:	010c      	addiu	s1,sp,48
9d002396:	a000      	lbu	s0,0(s0)

9d002398 <Serial1Read>:
9d002398:	64c4      	save	32,ra
9d00239a:	6a00      	li	v0,0
9d00239c:	677d      	move	v1,sp
9d00239e:	181a 08e1 	jal	9d002384 <Serial1Available>
9d0023a2:	c350      	sb	v0,16(v1)
9d0023a4:	2208      	beqz	v0,9d0023b6 <Serial1Read+0x1e>
9d0023a6:	b407      	lw	a0,9d0023c0 <Serial1Read+0x28>
9d0023a8:	0504      	addiu	a1,sp,16
9d0023aa:	181a 088e 	jal	9d002238 <FIFO_dequeue>
9d0023ae:	6e01      	li	a2,1
9d0023b0:	677d      	move	v1,sp
9d0023b2:	a350      	lbu	v0,16(v1)
9d0023b4:	1002      	b	9d0023ba <Serial1Read+0x22>
9d0023b6:	6a01      	li	v0,1
9d0023b8:	ea4b      	neg	v0
9d0023ba:	6444      	restore	32,ra
9d0023bc:	e8a0      	jrc	ra
9d0023be:	6500      	nop
9d0023c0:	010c      	addiu	s1,sp,48
9d0023c2:	a000      	lbu	s0,0(s0)

9d0023c4 <Serial1GetKey>:
9d0023c4:	64c3      	save	24,ra
9d0023c6:	181a 08e1 	jal	9d002384 <Serial1Available>
9d0023ca:	6500      	nop
9d0023cc:	2a04      	bnez	v0,9d0023d6 <Serial1GetKey+0x12>
9d0023ce:	181a 06b4 	jal	9d001ad0 <led_blink>
9d0023d2:	6500      	nop
9d0023d4:	17f8      	b	9d0023c6 <Serial1GetKey+0x2>
9d0023d6:	181a 08e6 	jal	9d002398 <Serial1Read>
9d0023da:	6500      	nop
9d0023dc:	6443      	restore	24,ra
9d0023de:	e8a0      	jrc	ra

9d0023e0 <_UART1Interrupt>:
9d0023e0:	401a6800 	mfc0	k0,c0_cause
9d0023e4:	401b7000 	mfc0	k1,c0_epc
9d0023e8:	27bdff88 	addiu	sp,sp,-120
9d0023ec:	afbb0074 	sw	k1,116(sp)
9d0023f0:	401b6000 	mfc0	k1,c0_status
9d0023f4:	001ad282 	srl	k0,k0,0xa
9d0023f8:	afbb0070 	sw	k1,112(sp)
9d0023fc:	7f5b7a84 	ins	k1,k0,0xa,0x6
9d002400:	0000d012 	mflo	k0
9d002404:	7c1b2044 	ins	k1,zero,0x1,0x4
9d002408:	afba006c 	sw	k0,108(sp)
9d00240c:	0000d010 	mfhi	k0
9d002410:	afba0068 	sw	k0,104(sp)
9d002414:	409b6000 	mtc0	k1,c0_status
9d002418:	afb00058 	sw	s0,88(sp)
9d00241c:	3c10bf88 	lui	s0,0xbf88
9d002420:	afa20020 	sw	v0,32(sp)
9d002424:	8e021040 	lw	v0,4160(s0)
9d002428:	afbf0064 	sw	ra,100(sp)
9d00242c:	7c420200 	ext	v0,v0,0x8,0x1
9d002430:	afb90060 	sw	t9,96(sp)
9d002434:	afb8005c 	sw	t8,92(sp)
9d002438:	afaf0054 	sw	t7,84(sp)
9d00243c:	afae0050 	sw	t6,80(sp)
9d002440:	afad004c 	sw	t5,76(sp)
9d002444:	afac0048 	sw	t4,72(sp)
9d002448:	afab0044 	sw	t3,68(sp)
9d00244c:	afaa0040 	sw	t2,64(sp)
9d002450:	afa9003c 	sw	t1,60(sp)
9d002454:	afa80038 	sw	t0,56(sp)
9d002458:	afa70034 	sw	a3,52(sp)
9d00245c:	afa60030 	sw	a2,48(sp)
9d002460:	afa5002c 	sw	a1,44(sp)
9d002464:	afa40028 	sw	a0,40(sp)
9d002468:	afa30024 	sw	v1,36(sp)
9d00246c:	1040000c 	beqz	v0,9d0024a0 <_UART1Interrupt+0xc0>
9d002470:	afa1001c 	sw	at,28(sp)
9d002474:	3c02bf80 	lui	v0,0xbf80
9d002478:	3c04a000 	lui	a0,0xa000
9d00247c:	8c426030 	lw	v0,24624(v0)
9d002480:	2484010c 	addiu	a0,a0,268
9d002484:	27a50010 	addiu	a1,sp,16
9d002488:	24060001 	li	a2,1
9d00248c:	7740087d 	jalx	9d0021f4 <FIFO_enqueue>
9d002490:	a3a20010 	sb	v0,16(sp)
9d002494:	8e021040 	lw	v0,4160(s0)
9d002498:	7c024204 	ins	v0,zero,0x8,0x1
9d00249c:	ae021040 	sw	v0,4160(s0)
9d0024a0:	8e021040 	lw	v0,4160(s0)
9d0024a4:	7c420240 	ext	v0,v0,0x9,0x1
9d0024a8:	10400004 	beqz	v0,9d0024bc <_UART1Interrupt+0xdc>
9d0024ac:	3c03bf88 	lui	v1,0xbf88
9d0024b0:	8c621040 	lw	v0,4160(v1)
9d0024b4:	7c024a44 	ins	v0,zero,0x9,0x1
9d0024b8:	ac621040 	sw	v0,4160(v1)
9d0024bc:	8e021040 	lw	v0,4160(s0)
9d0024c0:	7c4201c0 	ext	v0,v0,0x7,0x1
9d0024c4:	10400004 	beqz	v0,9d0024d8 <_UART1Interrupt+0xf8>
9d0024c8:	3c03bf88 	lui	v1,0xbf88
9d0024cc:	8c621040 	lw	v0,4160(v1)
9d0024d0:	7c0239c4 	ins	v0,zero,0x7,0x1
9d0024d4:	ac621040 	sw	v0,4160(v1)
9d0024d8:	41606000 	di
9d0024dc:	000000c0 	ehb
9d0024e0:	8fba006c 	lw	k0,108(sp)
9d0024e4:	8fbf0064 	lw	ra,100(sp)
9d0024e8:	03400013 	mtlo	k0
9d0024ec:	8fba0068 	lw	k0,104(sp)
9d0024f0:	8fb90060 	lw	t9,96(sp)
9d0024f4:	03400011 	mthi	k0
9d0024f8:	8fb8005c 	lw	t8,92(sp)
9d0024fc:	8fb00058 	lw	s0,88(sp)
9d002500:	8faf0054 	lw	t7,84(sp)
9d002504:	8fae0050 	lw	t6,80(sp)
9d002508:	8fad004c 	lw	t5,76(sp)
9d00250c:	8fac0048 	lw	t4,72(sp)
9d002510:	8fab0044 	lw	t3,68(sp)
9d002514:	8faa0040 	lw	t2,64(sp)
9d002518:	8fa9003c 	lw	t1,60(sp)
9d00251c:	8fa80038 	lw	t0,56(sp)
9d002520:	8fa70034 	lw	a3,52(sp)
9d002524:	8fa60030 	lw	a2,48(sp)
9d002528:	8fa5002c 	lw	a1,44(sp)
9d00252c:	8fa40028 	lw	a0,40(sp)
9d002530:	8fa30024 	lw	v1,36(sp)
9d002534:	8fa20020 	lw	v0,32(sp)
9d002538:	8fa1001c 	lw	at,28(sp)
9d00253c:	8fba0074 	lw	k0,116(sp)
9d002540:	409a7000 	mtc0	k0,c0_epc
9d002544:	8fba0070 	lw	k0,112(sp)
9d002548:	27bd0078 	addiu	sp,sp,120
9d00254c:	409a6000 	mtc0	k0,c0_status
9d002550:	42000018 	eret

9d002554 <INTEnableInterrupts>:
9d002554:	03e00008 	jr	ra
9d002558:	41626020 	ei	v0

9d00255c <INTClearFlag>:
9d00255c:	00041080 	sll	v0,a0,0x2
9d002560:	00042100 	sll	a0,a0,0x4
9d002564:	00822023 	subu	a0,a0,v0
9d002568:	3c029d00 	lui	v0,0x9d00
9d00256c:	244228b8 	addiu	v0,v0,10424
9d002570:	00442021 	addu	a0,v0,a0
9d002574:	8c820000 	lw	v0,0(a0)
9d002578:	8c830008 	lw	v1,8(a0)
9d00257c:	ac430004 	sw	v1,4(v0)
9d002580:	03e00008 	jr	ra
9d002584:	00000000 	nop

9d002588 <INTEnable>:
9d002588:	00041080 	sll	v0,a0,0x2
9d00258c:	00042100 	sll	a0,a0,0x4
9d002590:	00822023 	subu	a0,a0,v0
9d002594:	3c029d00 	lui	v0,0x9d00
9d002598:	244228b8 	addiu	v0,v0,10424
9d00259c:	00442021 	addu	a0,v0,a0
9d0025a0:	8c820004 	lw	v0,4(a0)
9d0025a4:	14a00004 	bnez	a1,9d0025b8 <INTEnable+0x30>
9d0025a8:	8c830008 	lw	v1,8(a0)
9d0025ac:	ac430004 	sw	v1,4(v0)
9d0025b0:	03e00008 	jr	ra
9d0025b4:	00000000 	nop
9d0025b8:	ac430008 	sw	v1,8(v0)
9d0025bc:	03e00008 	jr	ra
9d0025c0:	00000000 	nop

9d0025c4 <DmaChnOpen>:
9d0025c4:	27bdffd8 	addiu	sp,sp,-40
9d0025c8:	afbf0024 	sw	ra,36(sp)
9d0025cc:	afb40020 	sw	s4,32(sp)
9d0025d0:	afb3001c 	sw	s3,28(sp)
9d0025d4:	afb20018 	sw	s2,24(sp)
9d0025d8:	afb10014 	sw	s1,20(sp)
9d0025dc:	afb00010 	sw	s0,16(sp)
9d0025e0:	00808821 	move	s1,a0
9d0025e4:	00041180 	sll	v0,a0,0x6
9d0025e8:	00048200 	sll	s0,a0,0x8
9d0025ec:	24930041 	addiu	s3,a0,65
9d0025f0:	02028023 	subu	s0,s0,v0
9d0025f4:	00a0a021 	move	s4,a1
9d0025f8:	02602021 	move	a0,s3
9d0025fc:	00002821 	move	a1,zero
9d002600:	3c029d00 	lui	v0,0x9d00
9d002604:	8c422e10 	lw	v0,11792(v0)
9d002608:	00508021 	addu	s0,v0,s0
9d00260c:	0f400962 	jal	9d002588 <INTEnable>
9d002610:	00c09021 	move	s2,a2
9d002614:	24020040 	li	v0,64
9d002618:	ae020018 	sw	v0,24(s0)
9d00261c:	34038000 	li	v1,0x8000
9d002620:	3c02bf88 	lui	v0,0xbf88
9d002624:	ac433008 	sw	v1,12296(v0)
9d002628:	8e020010 	lw	v0,16(s0)
9d00262c:	30420040 	andi	v0,v0,0x40
9d002630:	1440fffd 	bnez	v0,9d002628 <DmaChnOpen+0x64>
9d002634:	3c02bf88 	lui	v0,0xbf88
9d002638:	8c423030 	lw	v0,12336(v0)
9d00263c:	30420007 	andi	v0,v0,0x7
9d002640:	10510018 	beq	v0,s1,9d0026a4 <DmaChnOpen+0xe0>
9d002644:	24030040 	li	v1,64
9d002648:	24020038 	li	v0,56
9d00264c:	ae020014 	sw	v0,20(s0)
9d002650:	02602021 	move	a0,s3
9d002654:	2402ffff 	li	v0,-1
9d002658:	ae020024 	sw	v0,36(s0)
9d00265c:	0f400957 	jal	9d00255c <INTClearFlag>
9d002660:	00000000 	nop
9d002664:	06430004 	bgezl	s2,9d002678 <DmaChnOpen+0xb4>
9d002668:	7e52f000 	ext	s2,s2,0x0,0x1f
9d00266c:	24020020 	li	v0,32
9d002670:	ae020018 	sw	v0,24(s0)
9d002674:	7e52f000 	ext	s2,s2,0x0,0x1f
9d002678:	32940003 	andi	s4,s4,0x3
9d00267c:	02549025 	or	s2,s2,s4
9d002680:	ae120000 	sw	s2,0(s0)
9d002684:	8fbf0024 	lw	ra,36(sp)
9d002688:	8fb40020 	lw	s4,32(sp)
9d00268c:	8fb3001c 	lw	s3,28(sp)
9d002690:	8fb20018 	lw	s2,24(sp)
9d002694:	8fb10014 	lw	s1,20(sp)
9d002698:	8fb00010 	lw	s0,16(sp)
9d00269c:	03e00008 	jr	ra
9d0026a0:	27bd0028 	addiu	sp,sp,40
9d0026a4:	3c02bf88 	lui	v0,0xbf88
9d0026a8:	ac433034 	sw	v1,12340(v0)
9d0026ac:	0b400993 	j	9d00264c <DmaChnOpen+0x88>
9d0026b0:	24020038 	li	v0,56

9d0026b4 <DmaChnWriteEventControlFlags>:
9d0026b4:	3c029d00 	lui	v0,0x9d00
9d0026b8:	8c422e10 	lw	v0,11792(v0)
9d0026bc:	00041980 	sll	v1,a0,0x6
9d0026c0:	00042200 	sll	a0,a0,0x8
9d0026c4:	00832023 	subu	a0,a0,v1
9d0026c8:	00442021 	addu	a0,v0,a0
9d0026cc:	3c0200ff 	lui	v0,0xff
9d0026d0:	3442ff38 	ori	v0,v0,0xff38
9d0026d4:	00a22824 	and	a1,a1,v0
9d0026d8:	ac850010 	sw	a1,16(a0)
9d0026dc:	03e00008 	jr	ra
9d0026e0:	00000000 	nop

9d0026e4 <DmaChnSetTxfer>:
9d0026e4:	00041180 	sll	v0,a0,0x6
9d0026e8:	00042200 	sll	a0,a0,0x8
9d0026ec:	00822023 	subu	a0,a0,v0
9d0026f0:	3c029d00 	lui	v0,0x9d00
9d0026f4:	8c422e10 	lw	v0,11792(v0)
9d0026f8:	04a00012 	bltz	a1,9d002744 <DmaChnSetTxfer+0x60>
9d0026fc:	00442021 	addu	a0,v0,a0
9d002700:	3c024000 	lui	v0,0x4000
9d002704:	00a22821 	addu	a1,a1,v0
9d002708:	ac850030 	sw	a1,48(a0)
9d00270c:	04c20012 	bltzl	a2,9d002758 <DmaChnSetTxfer+0x74>
9d002710:	7cc6e000 	ext	a2,a2,0x0,0x1d
9d002714:	3c024000 	lui	v0,0x4000
9d002718:	00c23021 	addu	a2,a2,v0
9d00271c:	ac860040 	sw	a2,64(a0)
9d002720:	ac870050 	sw	a3,80(a0)
9d002724:	8fa20010 	lw	v0,16(sp)
9d002728:	ac820060 	sw	v0,96(a0)
9d00272c:	8fa20014 	lw	v0,20(sp)
9d002730:	ac820090 	sw	v0,144(a0)
9d002734:	240200ff 	li	v0,255
9d002738:	ac820024 	sw	v0,36(a0)
9d00273c:	03e00008 	jr	ra
9d002740:	00000000 	nop
9d002744:	7ca5e000 	ext	a1,a1,0x0,0x1d
9d002748:	ac850030 	sw	a1,48(a0)
9d00274c:	04c1fff2 	bgez	a2,9d002718 <DmaChnSetTxfer+0x34>
9d002750:	3c024000 	lui	v0,0x4000
9d002754:	7cc6e000 	ext	a2,a2,0x0,0x1d
9d002758:	ac860040 	sw	a2,64(a0)
9d00275c:	ac870050 	sw	a3,80(a0)
9d002760:	8fa20010 	lw	v0,16(sp)
9d002764:	ac820060 	sw	v0,96(a0)
9d002768:	8fa20014 	lw	v0,20(sp)
9d00276c:	ac820090 	sw	v0,144(a0)
9d002770:	240200ff 	li	v0,255
9d002774:	ac820024 	sw	v0,36(a0)
9d002778:	03e00008 	jr	ra
9d00277c:	00000000 	nop

9d002780 <DmaChnStartTxfer>:
9d002780:	00041180 	sll	v0,a0,0x6
9d002784:	00042200 	sll	a0,a0,0x8
9d002788:	00822023 	subu	a0,a0,v0
9d00278c:	3c029d00 	lui	v0,0x9d00
9d002790:	8c432e10 	lw	v1,11792(v0)
9d002794:	00641821 	addu	v1,v1,a0
9d002798:	24020080 	li	v0,128
9d00279c:	240400ff 	li	a0,255
9d0027a0:	ac640024 	sw	a0,36(v1)
9d0027a4:	ac620008 	sw	v0,8(v1)
9d0027a8:	ac620018 	sw	v0,24(v1)
9d0027ac:	10a0003c 	beqz	a1,9d0028a0 <DmaChnStartTxfer+0x120>
9d0027b0:	00000000 	nop
9d0027b4:	24020001 	li	v0,1
9d0027b8:	10a20015 	beq	a1,v0,9d002810 <DmaChnStartTxfer+0x90>
9d0027bc:	00005821 	move	t3,zero
9d0027c0:	8c620050 	lw	v0,80(v1)
9d0027c4:	10400002 	beqz	v0,9d0027d0 <DmaChnStartTxfer+0x50>
9d0027c8:	3c040001 	lui	a0,0x1
9d0027cc:	8c640050 	lw	a0,80(v1)
9d0027d0:	8c620060 	lw	v0,96(v1)
9d0027d4:	10400002 	beqz	v0,9d0027e0 <DmaChnStartTxfer+0x60>
9d0027d8:	3c070001 	lui	a3,0x1
9d0027dc:	8c670060 	lw	a3,96(v1)
9d0027e0:	8c680090 	lw	t0,144(v1)
9d0027e4:	11000002 	beqz	t0,9d0027f0 <DmaChnStartTxfer+0x70>
9d0027e8:	3c020001 	lui	v0,0x1
9d0027ec:	8c620090 	lw	v0,144(v1)
9d0027f0:	00e4582b 	sltu	t3,a3,a0
9d0027f4:	00eb200a 	movz	a0,a3,t3
9d0027f8:	248bffff 	addiu	t3,a0,-1
9d0027fc:	01625821 	addu	t3,t3,v0
9d002800:	0162001b 	divu	zero,t3,v0
9d002804:	004001f4 	teq	v0,zero,0x7
9d002808:	00005812 	mflo	t3
9d00280c:	256bffff 	addiu	t3,t3,-1
9d002810:	00c03821 	move	a3,a2
9d002814:	240c0001 	li	t4,1
9d002818:	240e0004 	li	t6,4
9d00281c:	240d0080 	li	t5,128
9d002820:	8c620020 	lw	v0,32(v1)
9d002824:	24eaffff 	addiu	t2,a3,-1
9d002828:	30440003 	andi	a0,v0,0x3
9d00282c:	30480008 	andi	t0,v0,0x8
9d002830:	14800016 	bnez	a0,9d00288c <DmaChnStartTxfer+0x10c>
9d002834:	30490004 	andi	t1,v0,0x4
9d002838:	15000019 	bnez	t0,9d0028a0 <DmaChnStartTxfer+0x120>
9d00283c:	00000000 	nop
9d002840:	11200008 	beqz	t1,9d002864 <DmaChnStartTxfer+0xe4>
9d002844:	00000000 	nop
9d002848:	10ac0015 	beq	a1,t4,9d0028a0 <DmaChnStartTxfer+0x120>
9d00284c:	00000000 	nop
9d002850:	11600017 	beqz	t3,9d0028b0 <DmaChnStartTxfer+0x130>
9d002854:	00000000 	nop
9d002858:	ac6e0024 	sw	t6,36(v1)
9d00285c:	256bffff 	addiu	t3,t3,-1
9d002860:	ac6d0018 	sw	t5,24(v1)
9d002864:	10c0ffee 	beqz	a2,9d002820 <DmaChnStartTxfer+0xa0>
9d002868:	00000000 	nop
9d00286c:	10e0000e 	beqz	a3,9d0028a8 <DmaChnStartTxfer+0x128>
9d002870:	01403821 	move	a3,t2
9d002874:	8c620020 	lw	v0,32(v1)
9d002878:	24eaffff 	addiu	t2,a3,-1
9d00287c:	30440003 	andi	a0,v0,0x3
9d002880:	30480008 	andi	t0,v0,0x8
9d002884:	1080ffec 	beqz	a0,9d002838 <DmaChnStartTxfer+0xb8>
9d002888:	30490004 	andi	t1,v0,0x4
9d00288c:	30440001 	andi	a0,v0,0x1
9d002890:	24020001 	li	v0,1
9d002894:	24030002 	li	v1,2
9d002898:	03e00008 	jr	ra
9d00289c:	0064100a 	movz	v0,v1,a0
9d0028a0:	03e00008 	jr	ra
9d0028a4:	00001021 	move	v0,zero
9d0028a8:	03e00008 	jr	ra
9d0028ac:	24020005 	li	v0,5
9d0028b0:	03e00008 	jr	ra
9d0028b4:	24020003 	li	v0,3

Disassembly of section .rodata:

9d0028b8 <__IntSrcTbl>:
9d0028b8:	bf881030 bf881060 00000001 bf881030     0...`.......0...
9d0028c8:	bf881060 00000002 bf881030 bf881060     `.......0...`...
9d0028d8:	00000004 bf881030 bf881060 00000008     ....0...`.......
9d0028e8:	bf881030 bf881060 00000100 bf881030     0...`.......0...
9d0028f8:	bf881060 00002000 bf881030 bf881060     `.... ..0...`...
9d002908:	00040000 bf881030 bf881060 00800000     ....0...`.......
9d002918:	bf881030 bf881060 00000010 bf881030     0...`.......0...
9d002928:	bf881060 00000200 bf881030 bf881060     `.......0...`...
9d002938:	00004000 bf881030 bf881060 00080000     .@..0...`.......
9d002948:	bf881030 bf881060 01000000 bf881030     0...`.......0...
9d002958:	bf881060 00000020 bf881030 bf881060     `... ...0...`...
9d002968:	00000400 bf881030 bf881060 00008000     ....0...`.......
9d002978:	bf881030 bf881060 00100000 bf881030     0...`.......0...
9d002988:	bf881060 02000000 bf881030 bf881060     `.......0...`...
9d002998:	00000040 bf881030 bf881060 00000800     @...0...`.......
9d0029a8:	bf881030 bf881060 00010000 bf881030     0...`.......0...
9d0029b8:	bf881060 00200000 bf881030 bf881060     `..... .0...`...
9d0029c8:	04000000 bf881030 bf881060 00000080     ....0...`.......
9d0029d8:	bf881030 bf881060 00001000 bf881030     0...`.......0...
9d0029e8:	bf881060 00020000 bf881030 bf881060     `.......0...`...
9d0029f8:	00400000 bf881030 bf881060 08000000     ..@.0...`.......
9d002a08:	bf881040 bf881070 00002000 bf881040     @...p.... ..@...
9d002a18:	bf881070 00004000 bf881040 bf881070     p....@..@...p...
9d002a28:	00008000 bf881040 bf881070 00000070     ....@...p...p...
9d002a38:	bf881040 bf881070 001c0000 bf881040     @...p.......@...
9d002a48:	bf881070 00000010 bf881040 bf881070     p.......@...p...
9d002a58:	00040000 bf881040 bf881070 00000040     ....@...p...@...
9d002a68:	bf881040 bf881070 00100000 bf881040     @...p.......@...
9d002a78:	bf881070 00000020 bf881040 bf881070     p... ...@...p...
9d002a88:	00080000 bf881040 bf881070 00001c00     ....@...p.......
9d002a98:	bf881040 bf881070 07000000 bf881040     @...p.......@...
9d002aa8:	bf881070 00000400 bf881040 bf881070     p.......@...p...
9d002ab8:	01000000 bf881040 bf881070 00000800     ....@...p.......
9d002ac8:	bf881040 bf881070 02000000 bf881040     @...p.......@...
9d002ad8:	bf881070 00001000 bf881040 bf881070     p.......@...p...
9d002ae8:	04000000 bf881040 bf881070 00000380     ....@...p.......
9d002af8:	bf881040 bf881070 00e00000 bf881040     @...p.......@...
9d002b08:	bf881070 00000080 bf881040 bf881070     p.......@...p...
9d002b18:	00200000 bf881040 bf881070 00000100     .. .@...p.......
9d002b28:	bf881040 bf881070 00400000 bf881040     @...p.....@.@...
9d002b38:	bf881070 00000200 bf881040 bf881070     p.......@...p...
9d002b48:	00800000 bf881030 bf881060 10000000     ....0...`.......
9d002b58:	bf881040 bf881070 00010000 bf881040     @...p.......@...
9d002b68:	bf881070 00020000 bf881040 bf881070     p.......@...p...
9d002b78:	00000001 bf881040 bf881070 00000002     ....@...p.......
9d002b88:	bf881040 bf881070 00000004 bf881030     @...p.......0...
9d002b98:	bf881060 20000000 bf881030 bf881060     `...... 0...`...
9d002ba8:	80000000 bf881030 bf881060 40000000     ....0...`......@
9d002bb8:	bf881040 bf881070 08000000 bf881040     @...p.......@...
9d002bc8:	bf881070 10000000 bf881040 bf881070     p.......@...p...
9d002bd8:	20000000 bf881040 bf881070 40000000     ... @...p......@
9d002be8:	bf881040 bf881070 80000000 bf881040     @...p.......@...
9d002bf8:	bf881070 00000008                       p.......

9d002c00 <__IntVectorTbl>:
9d002c00:	bf881090 00000000 00000002 bf881090     ................
9d002c10:	00000008 0000000a bf881090 00000010     ................
9d002c20:	00000012 bf881090 00000018 0000001a     ................
9d002c30:	bf8810a0 00000018 0000001a bf8810b0     ................
9d002c40:	00000018 0000001a bf8810c0 00000018     ................
9d002c50:	0000001a bf8810d0 00000018 0000001a     ................
9d002c60:	bf8810a0 00000000 00000002 bf8810b0     ................
9d002c70:	00000000 00000002 bf8810c0 00000000     ................
9d002c80:	00000002 bf8810d0 00000000 00000002     ................
9d002c90:	bf8810e0 00000000 00000002 bf8810a0     ................
9d002ca0:	00000008 0000000a bf8810b0 00000008     ................
9d002cb0:	0000000a bf8810c0 00000008 0000000a     ................
9d002cc0:	bf8810d0 00000008 0000000a bf8810e0     ................
9d002cd0:	00000008 0000000a bf8810a0 00000010     ................
9d002ce0:	00000012 bf8810b0 00000010 00000012     ................
9d002cf0:	bf8810c0 00000010 00000012 bf8810d0     ................
9d002d00:	00000010 00000012 bf8810e0 00000010     ................
9d002d10:	00000012 bf881100 00000018 0000001a     ................
9d002d20:	bf881120 00000000 00000002 bf881110      ...............
9d002d30:	00000000 00000002 bf881120 00000008     ........ .......
9d002d40:	0000000a bf881110 00000008 0000000a     ................
9d002d50:	bf881120 00000010 00000012 bf881110      ...............
9d002d60:	00000010 00000012 bf8810e0 00000018     ................
9d002d70:	0000001a bf881110 00000018 0000001a     ................
9d002d80:	bf8810f0 00000018 0000001a bf881100     ................
9d002d90:	00000000 00000002 bf881100 00000008     ................
9d002da0:	0000000a bf8810f0 00000000 00000002     ................
9d002db0:	bf8810f0 00000008 0000000a bf881120     ............ ...
9d002dc0:	00000018 0000001a bf881130 00000000     ........0.......
9d002dd0:	00000002 bf881130 00000008 0000000a     ....0...........
9d002de0:	bf881130 00000010 00000012 bf881130     0...........0...
9d002df0:	00000018 0000001a bf8810f0 00000010     ................
9d002e00:	00000012 bf881100 00000010 00000012     ................

9d002e10 <_DmaMapTbl>:
9d002e10:	bf883060                                `0..
