
main32.elf:     file format elf32-littlemips


Disassembly of section .bootrom:

9d001000 <_startup>:
9d001000:	3c1da000 	lui	sp,0xa000
9d001004:	27bd2000 	addiu	sp,sp,8192
9d001008:	41626000 	di	v0
9d00100c:	3c1ca001 	lui	gp,0xa001
9d001010:	279c8000 	addiu	gp,gp,-32768
9d001014:	40096002 	mfc0	t1,c0_srsctl
9d001018:	01205820 	add	t3,t1,zero
9d00101c:	7d2a1e80 	ext	t2,t1,0x1a,0x4
9d001020:	7d494984 	ins	t1,t2,0x6,0x4
9d001024:	40896002 	mtc0	t1,c0_srsctl
9d001028:	41dce000 	wrpgpr	gp,gp
9d00102c:	408b6002 	mtc0	t3,c0_srsctl
9d001030:	3c08a000 	lui	t0,0xa000
9d001034:	25080004 	addiu	t0,t0,4
9d001038:	3c09a000 	lui	t1,0xa000
9d00103c:	25290118 	addiu	t1,t1,280

9d001040 <_bss_init>:
9d001040:	ad000000 	sw	zero,0(t0)
9d001044:	25080004 	addiu	t0,t0,4

9d001048 <_bss_check>:
9d001048:	0109082b 	sltu	at,t0,t1
9d00104c:	1420fffc 	bnez	at,9d001040 <_bss_init>
9d001050:	00000000 	nop
9d001054:	3c089d00 	lui	t0,0x9d00
9d001058:	25081ba0 	addiu	t0,t0,7072
9d00105c:	3c09a000 	lui	t1,0xa000
9d001060:	25290004 	addiu	t1,t1,4
9d001064:	3c0aa000 	lui	t2,0xa000
9d001068:	254a0004 	addiu	t2,t2,4

9d00106c <_init_data>:
9d00106c:	8d0b0000 	lw	t3,0(t0)
9d001070:	ad2b0000 	sw	t3,0(t1)
9d001074:	25080004 	addiu	t0,t0,4
9d001078:	25290004 	addiu	t1,t1,4

9d00107c <_init_check>:
9d00107c:	012a082b 	sltu	at,t1,t2
9d001080:	1420fffa 	bnez	at,9d00106c <_init_data>
9d001084:	00000000 	nop
9d001088:	40804800 	mtc0	zero,c0_count
9d00108c:	240affff 	li	t2,-1
9d001090:	408a5800 	mtc0	t2,c0_compare
9d001094:	3c099d00 	lui	t1,0x9d00
9d001098:	25291000 	addiu	t1,t1,4096
9d00109c:	40897801 	mtc0	t1,c0_ebase
9d0010a0:	3c090000 	lui	t1,0x0
9d0010a4:	25290001 	addiu	t1,t1,1
9d0010a8:	240a0000 	li	t2,0
9d0010ac:	7d2a4944 	ins	t2,t1,0x5,0x5
9d0010b0:	408a6001 	mtc0	t2,c0_intctl
9d0010b4:	3c090080 	lui	t1,0x80
9d0010b8:	40896800 	mtc0	t1,c0_cause
9d0010bc:	40088000 	mfc0	t0,c0_config
9d0010c0:	7d090580 	ext	t1,t0,0x16,0x1
9d0010c4:	00094c40 	sll	t1,t1,0x11
9d0010c8:	40086000 	mfc0	t0,c0_status
9d0010cc:	3c010058 	lui	at,0x58
9d0010d0:	01014024 	and	t0,t0,at
9d0010d4:	01284025 	or	t0,t1,t0
9d0010d8:	3c01ffbf 	lui	at,0xffbf
9d0010dc:	3421ffff 	ori	at,at,0xffff
9d0010e0:	01014024 	and	t0,t0,at
9d0010e4:	774005f5 	jalx	9d0017d4 <main>
9d0010e8:	40886000 	mtc0	t0,c0_status

9d0010ec <INTDisableInterrupts>:
9d0010ec:	03e00008 	jr	ra
9d0010f0:	41626000 	di	v0

9d0010f4 <INTRestoreInterrupts>:
9d0010f4:	30840001 	andi	a0,a0,0x1
9d0010f8:	14800003 	bnez	a0,9d001108 <INTRestoreInterrupts+0x14>
9d0010fc:	00000000 	nop
9d001100:	03e00008 	jr	ra
9d001104:	41606000 	di
9d001108:	03e00008 	jr	ra
9d00110c:	41606020 	ei

Disassembly of section .reset:

bfc00000 <_reset>:
bfc00000:	3c1a9d00 	lui	k0,0x9d00
bfc00004:	275a1000 	addiu	k0,k0,4096
bfc00008:	03400008 	jr	k0
bfc0000c:	00000000 	nop

Disassembly of section .vector_32:

9d001600 <.vector_32>:
9d001600:	0b400585 	j	9d001614 <vector_32_ISR_wrapper>
9d001604:	00000000 	nop
9d001608:	00000000 	nop

Disassembly of section .text:

9d001610 <Default_Handler>:
9d001610:	42000018 	eret

9d001614 <vector_32_ISR_wrapper>:
9d001614:	415de800 	rdpgpr	sp,sp
9d001618:	401a6800 	mfc0	k0,c0_cause
9d00161c:	401b7000 	mfc0	k1,c0_epc
9d001620:	27bdff88 	addiu	sp,sp,-120
9d001624:	afbb0074 	sw	k1,116(sp)
9d001628:	401b6000 	mfc0	k1,c0_status
9d00162c:	001ad282 	srl	k0,k0,0xa
9d001630:	afbb0070 	sw	k1,112(sp)
9d001634:	7f5b7a84 	ins	k1,k0,0xa,0x6
9d001638:	0000d012 	mflo	k0
9d00163c:	afba006c 	sw	k0,108(sp)
9d001640:	0000d010 	mfhi	k0
9d001644:	afba0068 	sw	k0,104(sp)
9d001648:	7c1b2044 	ins	k1,zero,0x1,0x4
9d00164c:	409b6000 	mtc0	k1,c0_status
9d001650:	afbf0064 	sw	ra,100(sp)
9d001654:	afbe0060 	sw	s8,96(sp)
9d001658:	afb9005c 	sw	t9,92(sp)
9d00165c:	afb80058 	sw	t8,88(sp)
9d001660:	afaf0054 	sw	t7,84(sp)
9d001664:	afae0050 	sw	t6,80(sp)
9d001668:	afad004c 	sw	t5,76(sp)
9d00166c:	afac0048 	sw	t4,72(sp)
9d001670:	afab0044 	sw	t3,68(sp)
9d001674:	afaa0040 	sw	t2,64(sp)
9d001678:	afa9003c 	sw	t1,60(sp)
9d00167c:	afa80038 	sw	t0,56(sp)
9d001680:	afa70034 	sw	a3,52(sp)
9d001684:	afa60030 	sw	a2,48(sp)
9d001688:	afa5002c 	sw	a1,44(sp)
9d00168c:	afa40028 	sw	a0,40(sp)
9d001690:	afa30024 	sw	v1,36(sp)
9d001694:	afa20020 	sw	v0,32(sp)
9d001698:	03a0f021 	move	s8,sp
9d00169c:	7740069c 	jalx	9d001a70 <Serial1Interrupt>
9d0016a0:	00000000 	nop
9d0016a4:	03c0e821 	move	sp,s8
9d0016a8:	8fbf0064 	lw	ra,100(sp)
9d0016ac:	8fbe0060 	lw	s8,96(sp)
9d0016b0:	8fb9005c 	lw	t9,92(sp)
9d0016b4:	8fb80058 	lw	t8,88(sp)
9d0016b8:	8faf0054 	lw	t7,84(sp)
9d0016bc:	8fae0050 	lw	t6,80(sp)
9d0016c0:	8fad004c 	lw	t5,76(sp)
9d0016c4:	8fac0048 	lw	t4,72(sp)
9d0016c8:	8fab0044 	lw	t3,68(sp)
9d0016cc:	8faa0040 	lw	t2,64(sp)
9d0016d0:	8fa9003c 	lw	t1,60(sp)
9d0016d4:	8fa80038 	lw	t0,56(sp)
9d0016d8:	8fa70034 	lw	a3,52(sp)
9d0016dc:	8fa60030 	lw	a2,48(sp)
9d0016e0:	8fa5002c 	lw	a1,44(sp)
9d0016e4:	8fa40028 	lw	a0,40(sp)
9d0016e8:	8fa30024 	lw	v1,36(sp)
9d0016ec:	8fa20020 	lw	v0,32(sp)
9d0016f0:	41606000 	di
9d0016f4:	000000c0 	ehb
9d0016f8:	8fba006c 	lw	k0,108(sp)
9d0016fc:	03400013 	mtlo	k0
9d001700:	8fba0068 	lw	k0,104(sp)
9d001704:	03400011 	mthi	k0
9d001708:	8fba0074 	lw	k0,116(sp)
9d00170c:	409a7000 	mtc0	k0,c0_epc
9d001710:	8fba0070 	lw	k0,112(sp)
9d001714:	27bd0078 	addiu	sp,sp,120
9d001718:	409a6000 	mtc0	k0,c0_status
9d00171c:	42000018 	eret

9d001720 <system_unlock>:
9d001720:	6b00      	li	v1,0
9d001722:	b204      	lw	v0,9d001730 <system_unlock+0x10>
9d001724:	da60      	sw	v1,0(v0)
9d001726:	b304      	lw	v1,9d001734 <system_unlock+0x14>
9d001728:	da60      	sw	v1,0(v0)
9d00172a:	b304      	lw	v1,9d001738 <system_unlock+0x18>
9d00172c:	e820      	jr	ra
9d00172e:	da60      	sw	v1,0(v0)
9d001730:	f230 bf80 	lwu	a0,-32224(a3)
9d001734:	6655      	0x6655
9d001736:	aa99      	lhu	a0,50(v0)
9d001738:	99aa      	lw	a1,40(s1)
9d00173a:	5566      	slti	a1,102

9d00173c <io_setDigital>:
9d00173c:	b306      	lw	v1,9d001754 <io_setDigital+0x18>
9d00173e:	6a09      	li	v0,9
9d001740:	ab80      	lhu	a0,0(v1)
9d001742:	ea4b      	neg	v0
9d001744:	ea8c      	and	v0,a0
9d001746:	cb40      	sh	v0,0(v1)
9d001748:	6a00      	li	v0,0
9d00174a:	b304      	lw	v1,9d001758 <io_setDigital+0x1c>
9d00174c:	db40      	sw	v0,0(v1)
9d00174e:	b304      	lw	v1,9d00175c <io_setDigital+0x20>
9d001750:	e820      	jr	ra
9d001752:	db40      	sw	v0,0(v1)
9d001754:	f200 bf80 	lwu	a0,512(a3)
9d001758:	6000      	bteqz	9d00175a <io_setDigital+0x1e>
9d00175a:	bf88      	lwu	a0,32(a3)
9d00175c:	6100      	btnez	9d00175e <io_setDigital+0x22>
9d00175e:	bf88      	lwu	a0,32(a3)

9d001760 <io_setRemap>:
9d001760:	64c3      	save	24,ra
9d001762:	181a 05c8 	jal	9d001720 <system_unlock>
9d001766:	6500      	nop
9d001768:	b216      	lw	v0,9d0017c0 <io_setRemap+0x60>
9d00176a:	f004 6b01 	li	v1,8193
9d00176e:	aa80      	lhu	a0,0(v0)
9d001770:	eb6b      	neg	v1
9d001772:	eb8c      	and	v1,a0
9d001774:	b614      	lw	a2,9d0017c4 <io_setRemap+0x64>
9d001776:	ca60      	sh	v1,0(v0)
9d001778:	aa80      	lhu	a0,0(v0)
9d00177a:	f002 6b01 	li	v1,4097
9d00177e:	eb6b      	neg	v1
9d001780:	eb8c      	and	v1,a0
9d001782:	ca60      	sh	v1,0(v0)
9d001784:	a680      	lbu	a0,0(a2)
9d001786:	6b10      	li	v1,16
9d001788:	eb6b      	neg	v1
9d00178a:	67a4      	move	a1,a0
9d00178c:	ed6c      	and	a1,v1
9d00178e:	6c02      	li	a0,2
9d001790:	ecad      	or	a0,a1
9d001792:	b50e      	lw	a1,9d0017c8 <io_setRemap+0x68>
9d001794:	c680      	sb	a0,0(a2)
9d001796:	a580      	lbu	a0,0(a1)
9d001798:	eb8c      	and	v1,a0
9d00179a:	6c01      	li	a0,1
9d00179c:	eb8d      	or	v1,a0
9d00179e:	c560      	sb	v1,0(a1)
9d0017a0:	aa80      	lhu	a0,0(v0)
9d0017a2:	f004 6b00 	li	v1,8192
9d0017a6:	eb8d      	or	v1,a0
9d0017a8:	ca60      	sh	v1,0(v0)
9d0017aa:	aa80      	lhu	a0,0(v0)
9d0017ac:	f002 6b00 	li	v1,4096
9d0017b0:	eb8d      	or	v1,a0
9d0017b2:	ca60      	sh	v1,0(v0)
9d0017b4:	b306      	lw	v1,9d0017cc <io_setRemap+0x6c>
9d0017b6:	b207      	lw	v0,9d0017d0 <io_setRemap+0x70>
9d0017b8:	da60      	sw	v1,0(v0)
9d0017ba:	6443      	restore	24,ra
9d0017bc:	e8a0      	jrc	ra
9d0017be:	6500      	nop
9d0017c0:	f200 bf80 	lwu	a0,512(a3)
9d0017c4:	fa50      	sd	ra,640(sp)
9d0017c6:	bf80      	lwu	a0,0(a3)
9d0017c8:	fb3c      	daddiu	sp,480
9d0017ca:	bf80      	lwu	a0,0(a3)
9d0017cc:	5678      	slti	a2,120
9d0017ce:	1234      	b	9d001c38 <_data_image_begin+0x98>
9d0017d0:	f230 bf80 	lwu	a0,-32224(a3)

9d0017d4 <main>:
9d0017d4:	64e3      	save	24,ra,s0
9d0017d6:	b317      	lw	v1,9d001830 <main+0x5c>
9d0017d8:	6a80      	li	v0,128
9d0017da:	ab80      	lhu	a0,0(v1)
9d0017dc:	ea8d      	or	v0,a0
9d0017de:	cb40      	sh	v0,0(v1)
9d0017e0:	b315      	lw	v1,9d001834 <main+0x60>
9d0017e2:	6a09      	li	v0,9
9d0017e4:	ab80      	lhu	a0,0(v1)
9d0017e6:	ea4b      	neg	v0
9d0017e8:	ea8c      	and	v0,a0
9d0017ea:	181a 05cf 	jal	9d00173c <io_setDigital>
9d0017ee:	cb40      	sh	v0,0(v1)
9d0017f0:	181a 05d8 	jal	9d001760 <io_setRemap>
9d0017f4:	6500      	nop
9d0017f6:	f010 6d00 	li	a1,32768
9d0017fa:	b710      	lw	a3,9d001838 <main+0x64>
9d0017fc:	b210      	lw	v0,9d00183c <main+0x68>
9d0017fe:	6c01      	li	a0,1
9d001800:	f402 6e00 	li	a2,5120
9d001804:	181a 0659 	jal	9d001964 <SerialConfigure>
9d001808:	daa0      	sw	a1,0(v0)
9d00180a:	b40e      	lw	a0,9d001840 <main+0x6c>
9d00180c:	181a 0696 	jal	9d001a58 <Serial1WriteString>
9d001810:	6500      	nop
9d001812:	181a 068f 	jal	9d001a3c <Serial1GetKey>
9d001816:	6500      	nop
9d001818:	6782      	move	a0,v0
9d00181a:	6702      	move	s0,v0
9d00181c:	1c1a 0674 	jalx	9d0019d0 <Serial1WriteChar>
9d001820:	ec91      	seb	a0
9d001822:	700d      	cmpi	s0,13
9d001824:	61f6      	btnez	9d001812 <main+0x3e>
9d001826:	1c1a 0674 	jalx	9d0019d0 <Serial1WriteChar>
9d00182a:	6c0a      	li	a0,10
9d00182c:	17f2      	b	9d001812 <main+0x3e>
9d00182e:	6500      	nop
9d001830:	6110      	btnez	9d001852 <IntConfigureSystem+0xe>
9d001832:	bf88      	lwu	a0,32(a3)
9d001834:	f200 bf80 	lwu	a0,512(a3)
9d001838:	a120      	lbu	s1,0(s1)
9d00183a:	0007      	addiu	s0,sp,28
9d00183c:	6114      	btnez	9d001866 <IntConfigureSystem+0x22>
9d00183e:	bf88      	lwu	a0,32(a3)
9d001840:	1b88 9d00 	jal	94727400 <_bmxdudba_address+0x94725404>

9d001844 <IntConfigureSystem>:
9d001844:	308400ff 	andi	a0,a0,0xff
9d001848:	41606000 	di
9d00184c:	40026000 	mfc0	v0,c0_status
9d001850:	3c030040 	lui	v1,0x40
9d001854:	00431025 	or	v0,v0,v1
9d001858:	40826000 	mtc0	v0,c0_status
9d00185c:	000000c0 	ehb
9d001860:	3c029d00 	lui	v0,0x9d00
9d001864:	24421000 	addiu	v0,v0,4096
9d001868:	40827801 	mtc0	v0,c0_ebase
9d00186c:	000000c0 	ehb
9d001870:	24020020 	li	v0,32
9d001874:	40826001 	mtc0	v0,c0_intctl
9d001878:	000000c0 	ehb
9d00187c:	40026800 	mfc0	v0,c0_cause
9d001880:	3c030080 	lui	v1,0x80
9d001884:	00431025 	or	v0,v0,v1
9d001888:	40826800 	mtc0	v0,c0_cause
9d00188c:	000000c0 	ehb
9d001890:	40026000 	mfc0	v0,c0_status
9d001894:	3c03ffbf 	lui	v1,0xffbf
9d001898:	3463fffd 	ori	v1,v1,0xfffd
9d00189c:	00431024 	and	v0,v0,v1
9d0018a0:	40826000 	mtc0	v0,c0_status
9d0018a4:	000000c0 	ehb
9d0018a8:	24020001 	li	v0,1
9d0018ac:	10820006 	beq	a0,v0,9d0018c8 <IntConfigureSystem+0x84>
9d0018b0:	24020002 	li	v0,2
9d0018b4:	14820007 	bne	a0,v0,9d0018d4 <IntConfigureSystem+0x90>
9d0018b8:	24031000 	li	v1,4096
9d0018bc:	3c02bf88 	lui	v0,0xbf88
9d0018c0:	0b400635 	j	9d0018d4 <IntConfigureSystem+0x90>
9d0018c4:	ac431004 	sw	v1,4100(v0)
9d0018c8:	24031000 	li	v1,4096
9d0018cc:	3c02bf88 	lui	v0,0xbf88
9d0018d0:	ac431008 	sw	v1,4104(v0)
9d0018d4:	03e00008 	jr	ra
9d0018d8:	41606020 	ei

9d0018dc <SerialSetDataRate>:
9d0018dc:	b20c      	lw	v0,9d00190c <SerialSetDataRate+0x30>
9d0018de:	eaa3      	sltu	v0,a1
9d0018e0:	6104      	btnez	9d0018ea <SerialSetDataRate+0xe>
9d0018e2:	5d2d      	sltiu	a1,45
9d0018e4:	6003      	bteqz	9d0018ec <SerialSetDataRate+0x10>
9d0018e6:	6d2d      	li	a1,45
9d0018e8:	1001      	b	9d0018ec <SerialSetDataRate+0x10>
9d0018ea:	67a2      	move	a1,v0
9d0018ec:	b409      	lw	a0,9d001910 <SerialSetDataRate+0x34>
9d0018ee:	6b08      	li	v1,8
9d0018f0:	acc0      	lhu	a2,0(a0)
9d0018f2:	ebcd      	or	v1,a2
9d0018f4:	cc60      	sh	v1,0(a0)
9d0018f6:	33a7      	sra	v1,a1,1
9d0018f8:	e349      	addu	v0,v1,v0
9d0018fa:	eaba      	div	zero,v0,a1
9d0018fc:	2d01      	bnez	a1,9d001900 <SerialSetDataRate+0x24>
9d0018fe:	e8e5      	break	7
9d001900:	b305      	lw	v1,9d001914 <SerialSetDataRate+0x38>
9d001902:	ea12      	mflo	v0
9d001904:	4aff      	addiu	v0,-1
9d001906:	e820      	jr	ra
9d001908:	db40      	sw	v0,0(v1)
9d00190a:	6500      	nop
9d00190c:	1b00 00b7 	jal	906002dc <_bmxdudba_address+0x905fe2e0>
9d001910:	6000      	bteqz	9d001912 <SerialSetDataRate+0x36>
9d001912:	bf80      	lwu	a0,0(a3)
9d001914:	6040      	bteqz	9d001996 <SerialConfigure+0x32>
9d001916:	bf80      	lwu	a0,0(a3)

9d001918 <SerialIntConfigure>:
9d001918:	64f4      	save	32,ra,s0-s1
9d00191a:	6725      	move	s1,a1
9d00191c:	e911      	zeb	s1
9d00191e:	6c01      	li	a0,1
9d001920:	1c1a 0611 	jalx	9d001844 <IntConfigureSystem>
9d001924:	6706      	move	s0,a2
9d001926:	b30e      	lw	v1,9d00195c <SerialIntConfigure+0x44>
9d001928:	6a07      	li	v0,7
9d00192a:	67b1      	move	a1,s1
9d00192c:	ed4c      	and	a1,v0
9d00192e:	32a8      	sll	v0,a1,2
9d001930:	6c1d      	li	a0,29
9d001932:	9ba0      	lw	a1,0(v1)
9d001934:	ec8b      	neg	a0
9d001936:	ed8c      	and	a1,a0
9d001938:	ed4d      	or	a1,v0
9d00193a:	e811      	zeb	s0
9d00193c:	dba0      	sw	a1,0(v1)
9d00193e:	9bc0      	lw	a2,0(v1)
9d001940:	4c19      	addiu	a0,25
9d001942:	6a03      	li	v0,3
9d001944:	ea0c      	and	v0,s0
9d001946:	ee8c      	and	a2,a0
9d001948:	ee4d      	or	a2,v0
9d00194a:	6aff      	li	v0,255
9d00194c:	dbc0      	sw	a2,0(v1)
9d00194e:	b305      	lw	v1,9d001960 <SerialIntConfigure+0x48>
9d001950:	4a01      	addiu	v0,1
9d001952:	9b80      	lw	a0,0(v1)
9d001954:	ea8d      	or	v0,a0
9d001956:	db40      	sw	v0,0(v1)
9d001958:	6474      	restore	32,ra,s0-s1
9d00195a:	e8a0      	jrc	ra
9d00195c:	1110      	b	9d001b7e <led_blink+0x22>
9d00195e:	bf88      	lwu	a0,32(a3)
9d001960:	1070      	b	9d001a42 <Serial1GetKey+0x6>
9d001962:	bf88      	lwu	a0,32(a3)

9d001964 <SerialConfigure>:
9d001964:	64f5      	save	40,ra,s0-s1
9d001966:	6765      	move	v1,a1
9d001968:	6726      	move	s1,a2
9d00196a:	6eff      	li	a2,255
9d00196c:	4e01      	addiu	a2,1
9d00196e:	6704      	move	s0,a0
9d001970:	b512      	lw	a1,9d0019b8 <SerialConfigure+0x54>
9d001972:	b413      	lw	a0,9d0019bc <SerialConfigure+0x58>
9d001974:	d305      	sw	v1,20(sp)
9d001976:	181a 06b7 	jal	9d001adc <FIFO_init>
9d00197a:	d704      	sw	a3,16(sp)
9d00197c:	b411      	lw	a0,9d0019c0 <SerialConfigure+0x5c>
9d00197e:	6a11      	li	v0,17
9d001980:	aca0      	lhu	a1,0(a0)
9d001982:	ea4b      	neg	v0
9d001984:	eaac      	and	v0,a1
9d001986:	e811      	zeb	s0
9d001988:	cc40      	sh	v0,0(a0)
9d00198a:	b40f      	lw	a0,9d0019c4 <SerialConfigure+0x60>
9d00198c:	6a10      	li	v0,16
9d00198e:	a4a0      	lbu	a1,0(a0)
9d001990:	eaad      	or	v0,a1
9d001992:	c440      	sb	v0,0(a0)
9d001994:	9704      	lw	a3,16(sp)
9d001996:	6790      	move	a0,s0
9d001998:	181a 0637 	jal	9d0018dc <SerialSetDataRate>
9d00199c:	67a7      	move	a1,a3
9d00199e:	9305      	lw	v1,20(sp)
9d0019a0:	b20a      	lw	v0,9d0019c8 <SerialConfigure+0x64>
9d0019a2:	6790      	move	a0,s0
9d0019a4:	da60      	sw	v1,0(v0)
9d0019a6:	6d03      	li	a1,3
9d0019a8:	b209      	lw	v0,9d0019cc <SerialConfigure+0x68>
9d0019aa:	6e03      	li	a2,3
9d0019ac:	181a 0646 	jal	9d001918 <SerialIntConfigure>
9d0019b0:	da20      	sw	s1,0(v0)
9d0019b2:	6475      	restore	40,ra,s0-s1
9d0019b4:	e8a0      	jrc	ra
9d0019b6:	6500      	nop
9d0019b8:	0008      	addiu	s0,sp,32
9d0019ba:	a000      	lbu	s0,0(s0)
9d0019bc:	0108      	addiu	s1,sp,32
9d0019be:	a000      	lbu	s0,0(s0)
9d0019c0:	6110      	btnez	9d0019e2 <Serial1WriteChar+0x12>
9d0019c2:	bf88      	lwu	a0,32(a3)
9d0019c4:	6010      	bteqz	9d0019e6 <Serial1WriteChar+0x16>
9d0019c6:	bf88      	lwu	a0,32(a3)
9d0019c8:	6008      	bteqz	9d0019da <Serial1WriteChar+0xa>
9d0019ca:	bf80      	lwu	a0,0(a3)
9d0019cc:	6018      	bteqz	9d0019fe <Serial1Available+0x2>
9d0019ce:	bf80      	lwu	a0,0(a3)

9d0019d0 <Serial1WriteChar>:
9d0019d0:	7c042420 	seb	a0,a0
9d0019d4:	3c03bf80 	lui	v1,0xbf80
9d0019d8:	8c626010 	lw	v0,24592(v1)
9d0019dc:	7c420200 	ext	v0,v0,0x8,0x1
9d0019e0:	1040fffd 	beqz	v0,9d0019d8 <Serial1WriteChar+0x8>
9d0019e4:	00000000 	nop
9d0019e8:	41606000 	di
9d0019ec:	3c02bf80 	lui	v0,0xbf80
9d0019f0:	ac446020 	sw	a0,24608(v0)
9d0019f4:	03e00008 	jr	ra
9d0019f8:	41606020 	ei

9d0019fc <Serial1Available>:
9d0019fc:	64c3      	save	24,ra
9d0019fe:	b404      	lw	a0,9d001a0c <Serial1Available+0x10>
9d001a00:	181a 06c7 	jal	9d001b1c <FIFO_getsize>
9d001a04:	6500      	nop
9d001a06:	6443      	restore	24,ra
9d001a08:	e8a0      	jrc	ra
9d001a0a:	6500      	nop
9d001a0c:	0108      	addiu	s1,sp,32
9d001a0e:	a000      	lbu	s0,0(s0)

9d001a10 <Serial1Read>:
9d001a10:	64c4      	save	32,ra
9d001a12:	6a00      	li	v0,0
9d001a14:	677d      	move	v1,sp
9d001a16:	181a 067f 	jal	9d0019fc <Serial1Available>
9d001a1a:	c350      	sb	v0,16(v1)
9d001a1c:	2208      	beqz	v0,9d001a2e <Serial1Read+0x1e>
9d001a1e:	b407      	lw	a0,9d001a38 <Serial1Read+0x28>
9d001a20:	0504      	addiu	a1,sp,16
9d001a22:	181a 06cb 	jal	9d001b2c <FIFO_dequeue>
9d001a26:	6e01      	li	a2,1
9d001a28:	677d      	move	v1,sp
9d001a2a:	a350      	lbu	v0,16(v1)
9d001a2c:	1002      	b	9d001a32 <Serial1Read+0x22>
9d001a2e:	6a01      	li	v0,1
9d001a30:	ea4b      	neg	v0
9d001a32:	6444      	restore	32,ra
9d001a34:	e8a0      	jrc	ra
9d001a36:	6500      	nop
9d001a38:	0108      	addiu	s1,sp,32
9d001a3a:	a000      	lbu	s0,0(s0)

9d001a3c <Serial1GetKey>:
9d001a3c:	64c3      	save	24,ra
9d001a3e:	181a 067f 	jal	9d0019fc <Serial1Available>
9d001a42:	6500      	nop
9d001a44:	2a04      	bnez	v0,9d001a4e <Serial1GetKey+0x12>
9d001a46:	181a 06d7 	jal	9d001b5c <led_blink>
9d001a4a:	6500      	nop
9d001a4c:	17f8      	b	9d001a3e <Serial1GetKey+0x2>
9d001a4e:	181a 0684 	jal	9d001a10 <Serial1Read>
9d001a52:	6500      	nop
9d001a54:	6443      	restore	24,ra
9d001a56:	e8a0      	jrc	ra

9d001a58 <Serial1WriteString>:
9d001a58:	64e3      	save	24,ra,s0
9d001a5a:	6704      	move	s0,a0
9d001a5c:	a080      	lbu	a0,0(s0)
9d001a5e:	2405      	beqz	a0,9d001a6a <Serial1WriteString+0x12>
9d001a60:	ec91      	seb	a0
9d001a62:	1c1a 0674 	jalx	9d0019d0 <Serial1WriteChar>
9d001a66:	4801      	addiu	s0,1
9d001a68:	17f9      	b	9d001a5c <Serial1WriteString+0x4>
9d001a6a:	6463      	restore	24,ra,s0
9d001a6c:	e8a0      	jrc	ra
9d001a6e:	6500      	nop

9d001a70 <Serial1Interrupt>:
9d001a70:	64e4      	save	32,ra,s0
9d001a72:	b018      	lw	s0,9d001ad0 <Serial1Interrupt+0x60>
9d001a74:	9840      	lw	v0,0(s0)
9d001a76:	3342      	srl	v1,v0,8
9d001a78:	6a01      	li	v0,1
9d001a7a:	ea6c      	and	v0,v1
9d001a7c:	220f      	beqz	v0,9d001a9c <Serial1Interrupt+0x2c>
9d001a7e:	b216      	lw	v0,9d001ad4 <Serial1Interrupt+0x64>
9d001a80:	677d      	move	v1,sp
9d001a82:	9a40      	lw	v0,0(v0)
9d001a84:	b415      	lw	a0,9d001ad8 <Serial1Interrupt+0x68>
9d001a86:	0504      	addiu	a1,sp,16
9d001a88:	6e01      	li	a2,1
9d001a8a:	181a 06ba 	jal	9d001ae8 <FIFO_enqueue>
9d001a8e:	c350      	sb	v0,16(v1)
9d001a90:	6aff      	li	v0,255
9d001a92:	9860      	lw	v1,0(s0)
9d001a94:	4a02      	addiu	v0,2
9d001a96:	ea4b      	neg	v0
9d001a98:	ea6c      	and	v0,v1
9d001a9a:	d840      	sw	v0,0(s0)
9d001a9c:	9840      	lw	v0,0(s0)
9d001a9e:	6b01      	li	v1,1
9d001aa0:	3242      	srl	v0,8
9d001aa2:	3246      	srl	v0,1
9d001aa4:	ea6c      	and	v0,v1
9d001aa6:	b40b      	lw	a0,9d001ad0 <Serial1Interrupt+0x60>
9d001aa8:	2206      	beqz	v0,9d001ab6 <Serial1Interrupt+0x46>
9d001aaa:	9c60      	lw	v1,0(a0)
9d001aac:	f200 6a01 	li	v0,513
9d001ab0:	ea4b      	neg	v0
9d001ab2:	ea6c      	and	v0,v1
9d001ab4:	dc40      	sw	v0,0(a0)
9d001ab6:	9840      	lw	v0,0(s0)
9d001ab8:	b406      	lw	a0,9d001ad0 <Serial1Interrupt+0x60>
9d001aba:	335e      	srl	v1,v0,7
9d001abc:	6a01      	li	v0,1
9d001abe:	ea6c      	and	v0,v1
9d001ac0:	2205      	beqz	v0,9d001acc <Serial1Interrupt+0x5c>
9d001ac2:	9c60      	lw	v1,0(a0)
9d001ac4:	6a81      	li	v0,129
9d001ac6:	ea4b      	neg	v0
9d001ac8:	ea6c      	and	v0,v1
9d001aca:	dc40      	sw	v0,0(a0)
9d001acc:	6464      	restore	32,ra,s0
9d001ace:	e8a0      	jrc	ra
9d001ad0:	1040      	b	9d001b52 <FIFO_dequeue+0x26>
9d001ad2:	bf88      	lwu	a0,32(a3)
9d001ad4:	6030      	bteqz	9d001b36 <FIFO_dequeue+0xa>
9d001ad6:	bf80      	lwu	a0,0(a3)
9d001ad8:	0108      	addiu	s1,sp,32
9d001ada:	a000      	lbu	s0,0(s0)

9d001adc <FIFO_init>:
9d001adc:	6a00      	li	v0,0
9d001ade:	dca0      	sw	a1,0(a0)
9d001ae0:	dcc1      	sw	a2,4(a0)
9d001ae2:	dc42      	sw	v0,8(a0)
9d001ae4:	e820      	jr	ra
9d001ae6:	dc43      	sw	v0,12(a0)

9d001ae8 <FIFO_enqueue>:
9d001ae8:	9c62      	lw	v1,8(a0)
9d001aea:	6a00      	li	v0,0
9d001aec:	64b1      	save	8,s0-s1
9d001aee:	eac2      	slt	v0,a2
9d001af0:	600f      	bteqz	9d001b10 <FIFO_enqueue+0x28>
9d001af2:	e55d      	addu	a3,a1,v0
9d001af4:	9c20      	lw	s1,0(a0)
9d001af6:	8700      	lb	s0,0(a3)
9d001af8:	e17d      	addu	a3,s1,v1
9d001afa:	4b01      	addiu	v1,1
9d001afc:	c700      	sb	s0,0(a3)
9d001afe:	9ce1      	lw	a3,4(a0)
9d001b00:	ebe2      	slt	v1,a3
9d001b02:	6101      	btnez	9d001b06 <FIFO_enqueue+0x1e>
9d001b04:	6b00      	li	v1,0
9d001b06:	9c23      	lw	s1,12(a0)
9d001b08:	eb2a      	cmp	v1,s1
9d001b0a:	6004      	bteqz	9d001b14 <FIFO_enqueue+0x2c>
9d001b0c:	4a01      	addiu	v0,1
9d001b0e:	17ef      	b	9d001aee <FIFO_enqueue+0x6>
9d001b10:	dc62      	sw	v1,8(a0)
9d001b12:	1001      	b	9d001b16 <FIFO_enqueue+0x2e>
9d001b14:	6a00      	li	v0,0
9d001b16:	6431      	restore	8,s0-s1
9d001b18:	e8a0      	jrc	ra
9d001b1a:	6500      	nop

9d001b1c <FIFO_getsize>:
9d001b1c:	9c62      	lw	v1,8(a0)
9d001b1e:	9ca3      	lw	a1,12(a0)
9d001b20:	e3ab      	subu	v0,v1,a1
9d001b22:	5200      	slti	v0,0
9d001b24:	6002      	bteqz	9d001b2a <FIFO_getsize+0xe>
9d001b26:	9c61      	lw	v1,4(a0)
9d001b28:	e269      	addu	v0,v1
9d001b2a:	e8a0      	jrc	ra

9d001b2c <FIFO_dequeue>:
9d001b2c:	9c63      	lw	v1,12(a0)
9d001b2e:	6a00      	li	v0,0
9d001b30:	64a1      	save	8,s0
9d001b32:	eac2      	slt	v0,a2
9d001b34:	6010      	bteqz	9d001b56 <FIFO_dequeue+0x2a>
9d001b36:	9ce2      	lw	a3,8(a0)
9d001b38:	ebea      	cmp	v1,a3
9d001b3a:	600c      	bteqz	9d001b54 <FIFO_dequeue+0x28>
9d001b3c:	9c00      	lw	s0,0(a0)
9d001b3e:	e07d      	addu	a3,s0,v1
9d001b40:	4b01      	addiu	v1,1
9d001b42:	8700      	lb	s0,0(a3)
9d001b44:	e55d      	addu	a3,a1,v0
9d001b46:	c700      	sb	s0,0(a3)
9d001b48:	9ce1      	lw	a3,4(a0)
9d001b4a:	ebe2      	slt	v1,a3
9d001b4c:	6101      	btnez	9d001b50 <FIFO_dequeue+0x24>
9d001b4e:	6b00      	li	v1,0
9d001b50:	4a01      	addiu	v0,1
9d001b52:	17ef      	b	9d001b32 <FIFO_dequeue+0x6>
9d001b54:	6767      	move	v1,a3
9d001b56:	dc63      	sw	v1,12(a0)
9d001b58:	6421      	restore	8,s0
9d001b5a:	e8a0      	jrc	ra

9d001b5c <led_blink>:
9d001b5c:	677c      	move	v1,gp
9d001b5e:	b409      	lw	a0,9d001b80 <led_blink+0x24>
9d001b60:	f010 9b44 	lw	v0,-32764(v1)
9d001b64:	4a01      	addiu	v0,1
9d001b66:	ec42      	slt	a0,v0
9d001b68:	6103      	btnez	9d001b70 <led_blink+0x14>
9d001b6a:	f010 db44 	sw	v0,-32764(v1)
9d001b6e:	e8a0      	jrc	ra
9d001b70:	6a00      	li	v0,0
9d001b72:	f010 db44 	sw	v0,-32764(v1)
9d001b76:	f010 6b00 	li	v1,32768
9d001b7a:	b203      	lw	v0,9d001b84 <led_blink+0x28>
9d001b7c:	e820      	jr	ra
9d001b7e:	da60      	sw	v1,0(v0)
9d001b80:	1a7f 0006 	jal	9fcc0018 <_DBG_CODE_ADDR+0x2cbdb88>
9d001b84:	613c      	btnez	9d001bfe <_data_image_begin+0x5e>
9d001b86:	bf88      	lwu	a0,32(a3)
